
kernel.bin:     file format elf32-i386


Disassembly of section .text:

c0040000 <_kstart>:
c0040000:	bc e0 76 04 c0       	mov    $0xc00476e0,%esp
c0040005:	89 15 60 36 04 c0    	mov    %edx,0xc0043660
c004000b:	89 1d 64 36 04 c0    	mov    %ebx,0xc0043664
c0040011:	fa                   	cli    
c0040012:	0f 01 05 28 a0 04 c0 	sgdtl  0xc004a028
c0040019:	0f 01 15 28 a0 04 c0 	lgdtl  0xc004a028
c0040020:	e8 91 00 00 00       	call   c00400b6 <cstart>
c0040025:	0f 01 1d 40 a0 04 c0 	lidtl  0xc004a040
c004002c:	fb                   	sti    
c004002d:	eb fe                	jmp    c004002d <_kstart+0x2d>
c004002f:	ea 36 00 04 c0 08 00 	ljmp   $0x8,$0xc0040036

c0040036 <csinit>:
c0040036:	eb fe                	jmp    c0040036 <csinit>

c0040038 <setup_page_table>:
c0040038:	31 d2                	xor    %edx,%edx
c004003a:	66 90                	xchg   %ax,%ax
c004003c:	66 90                	xchg   %ax,%ax
c004003e:	66 90                	xchg   %ax,%ax

c0040040 <MemCopy>:
c0040040:	55                   	push   %ebp
c0040041:	89 e5                	mov    %esp,%ebp
c0040043:	56                   	push   %esi
c0040044:	57                   	push   %edi
c0040045:	51                   	push   %ecx
c0040046:	8b 7d 08             	mov    0x8(%ebp),%edi
c0040049:	8b 75 0c             	mov    0xc(%ebp),%esi
c004004c:	8b 4d 10             	mov    0x10(%ebp),%ecx

c004004f <MemCopy.cpyGoOn>:
c004004f:	83 f9 00             	cmp    $0x0,%ecx
c0040052:	74 0b                	je     c004005f <MemCopy.cpyDone>
c0040054:	3e 8a 06             	mov    %ds:(%esi),%al
c0040057:	46                   	inc    %esi
c0040058:	26 88 07             	mov    %al,%es:(%edi)
c004005b:	47                   	inc    %edi
c004005c:	49                   	dec    %ecx
c004005d:	eb f0                	jmp    c004004f <MemCopy.cpyGoOn>

c004005f <MemCopy.cpyDone>:
c004005f:	8b 45 08             	mov    0x8(%ebp),%eax
c0040062:	59                   	pop    %ecx
c0040063:	5f                   	pop    %edi
c0040064:	5e                   	pop    %esi
c0040065:	89 ec                	mov    %ebp,%esp
c0040067:	5d                   	pop    %ebp
c0040068:	c3                   	ret    

c0040069 <DisplayString>:
c0040069:	55                   	push   %ebp
c004006a:	89 e5                	mov    %esp,%ebp
c004006c:	8b 75 08             	mov    0x8(%ebp),%esi
c004006f:	8b 3d 68 36 04 c0    	mov    0xc0043668,%edi
c0040075:	b4 0f                	mov    $0xf,%ah

c0040077 <disp_str.1>:
c0040077:	ac                   	lods   %ds:(%esi),%al
c0040078:	84 c0                	test   %al,%al
c004007a:	74 23                	je     c004009f <disp_str.2>
c004007c:	3c 0a                	cmp    $0xa,%al
c004007e:	75 16                	jne    c0040096 <disp_str.3>
c0040080:	50                   	push   %eax
c0040081:	89 f8                	mov    %edi,%eax
c0040083:	b3 a0                	mov    $0xa0,%bl
c0040085:	f6 f3                	div    %bl
c0040087:	25 ff 00 00 00       	and    $0xff,%eax
c004008c:	40                   	inc    %eax
c004008d:	b3 a0                	mov    $0xa0,%bl
c004008f:	f6 e3                	mul    %bl
c0040091:	89 c7                	mov    %eax,%edi
c0040093:	58                   	pop    %eax
c0040094:	eb e1                	jmp    c0040077 <disp_str.1>

c0040096 <disp_str.3>:
c0040096:	65 66 89 07          	mov    %ax,%gs:(%edi)
c004009a:	83 c7 02             	add    $0x2,%edi
c004009d:	eb d8                	jmp    c0040077 <disp_str.1>

c004009f <disp_str.2>:
c004009f:	89 3d 68 36 04 c0    	mov    %edi,0xc0043668
c00400a5:	5d                   	pop    %ebp
c00400a6:	c3                   	ret    

c00400a7 <WriteMem>:
c00400a7:	51                   	push   %ecx
c00400a8:	50                   	push   %eax
c00400a9:	8b 4c 24 04          	mov    0x4(%esp),%ecx
c00400ad:	8a 44 24 08          	mov    0x8(%esp),%al
c00400b1:	88 01                	mov    %al,(%ecx)
c00400b3:	58                   	pop    %eax
c00400b4:	51                   	push   %ecx
c00400b5:	c3                   	ret    

c00400b6 <cstart>:
c00400b6:	55                   	push   %ebp
c00400b7:	89 e5                	mov    %esp,%ebp
c00400b9:	e8 f9 2b 00 00       	call   c0042cb7 <__x86.get_pc_thunk.ax>
c00400be:	05 16 36 00 00       	add    $0x3616,%eax
c00400c3:	90                   	nop
c00400c4:	5d                   	pop    %ebp
c00400c5:	c3                   	ret    

c00400c6 <init_palette>:
c00400c6:	55                   	push   %ebp
c00400c7:	89 e5                	mov    %esp,%ebp
c00400c9:	83 ec 08             	sub    $0x8,%esp
c00400cc:	e8 e6 2b 00 00       	call   c0042cb7 <__x86.get_pc_thunk.ax>
c00400d1:	05 03 36 00 00       	add    $0x3603,%eax
c00400d6:	83 ec 04             	sub    $0x4,%esp
c00400d9:	8d 80 cc ff ff ff    	lea    -0x34(%eax),%eax
c00400df:	50                   	push   %eax
c00400e0:	6a 0f                	push   $0xf
c00400e2:	6a 00                	push   $0x0
c00400e4:	e8 06 00 00 00       	call   c00400ef <set_palette>
c00400e9:	83 c4 10             	add    $0x10,%esp
c00400ec:	90                   	nop
c00400ed:	c9                   	leave  
c00400ee:	c3                   	ret    

c00400ef <set_palette>:
c00400ef:	55                   	push   %ebp
c00400f0:	89 e5                	mov    %esp,%ebp
c00400f2:	53                   	push   %ebx
c00400f3:	83 ec 14             	sub    $0x14,%esp
c00400f6:	e8 c0 2b 00 00       	call   c0042cbb <__x86.get_pc_thunk.bx>
c00400fb:	81 c3 d9 35 00 00    	add    $0x35d9,%ebx
c0040101:	e8 e1 27 00 00       	call   c00428e7 <disable_int>
c0040106:	8b 45 08             	mov    0x8(%ebp),%eax
c0040109:	0f b6 c0             	movzbl %al,%eax
c004010c:	83 ec 08             	sub    $0x8,%esp
c004010f:	50                   	push   %eax
c0040110:	68 c8 03 00 00       	push   $0x3c8
c0040115:	e8 ef 26 00 00       	call   c0042809 <outb>
c004011a:	83 c4 10             	add    $0x10,%esp
c004011d:	c6 45 f7 00          	movb   $0x0,-0x9(%ebp)
c0040121:	eb 6b                	jmp    c004018e <set_palette+0x9f>
c0040123:	8b 45 10             	mov    0x10(%ebp),%eax
c0040126:	0f b6 00             	movzbl (%eax),%eax
c0040129:	c0 e8 02             	shr    $0x2,%al
c004012c:	0f b6 c0             	movzbl %al,%eax
c004012f:	83 ec 08             	sub    $0x8,%esp
c0040132:	50                   	push   %eax
c0040133:	68 c9 03 00 00       	push   $0x3c9
c0040138:	e8 cc 26 00 00       	call   c0042809 <outb>
c004013d:	83 c4 10             	add    $0x10,%esp
c0040140:	8b 45 10             	mov    0x10(%ebp),%eax
c0040143:	83 c0 01             	add    $0x1,%eax
c0040146:	0f b6 00             	movzbl (%eax),%eax
c0040149:	c0 e8 02             	shr    $0x2,%al
c004014c:	0f b6 c0             	movzbl %al,%eax
c004014f:	83 ec 08             	sub    $0x8,%esp
c0040152:	50                   	push   %eax
c0040153:	68 c9 03 00 00       	push   $0x3c9
c0040158:	e8 ac 26 00 00       	call   c0042809 <outb>
c004015d:	83 c4 10             	add    $0x10,%esp
c0040160:	8b 45 10             	mov    0x10(%ebp),%eax
c0040163:	83 c0 02             	add    $0x2,%eax
c0040166:	0f b6 00             	movzbl (%eax),%eax
c0040169:	c0 e8 02             	shr    $0x2,%al
c004016c:	0f b6 c0             	movzbl %al,%eax
c004016f:	83 ec 08             	sub    $0x8,%esp
c0040172:	50                   	push   %eax
c0040173:	68 c9 03 00 00       	push   $0x3c9
c0040178:	e8 8c 26 00 00       	call   c0042809 <outb>
c004017d:	83 c4 10             	add    $0x10,%esp
c0040180:	83 45 10 03          	addl   $0x3,0x10(%ebp)
c0040184:	0f b6 45 f7          	movzbl -0x9(%ebp),%eax
c0040188:	83 c0 01             	add    $0x1,%eax
c004018b:	88 45 f7             	mov    %al,-0x9(%ebp)
c004018e:	0f b6 45 f7          	movzbl -0x9(%ebp),%eax
c0040192:	39 45 0c             	cmp    %eax,0xc(%ebp)
c0040195:	73 8c                	jae    c0040123 <set_palette+0x34>
c0040197:	90                   	nop
c0040198:	8b 5d fc             	mov    -0x4(%ebp),%ebx
c004019b:	c9                   	leave  
c004019c:	c3                   	ret    

c004019d <draw_main>:
c004019d:	55                   	push   %ebp
c004019e:	89 e5                	mov    %esp,%ebp
c00401a0:	56                   	push   %esi
c00401a1:	53                   	push   %ebx
c00401a2:	83 ec 10             	sub    $0x10,%esp
c00401a5:	e8 11 2b 00 00       	call   c0042cbb <__x86.get_pc_thunk.bx>
c00401aa:	81 c3 2a 35 00 00    	add    $0x352a,%ebx
c00401b0:	e8 11 ff ff ff       	call   c00400c6 <init_palette>
c00401b5:	c7 45 f4 80 02 00 00 	movl   $0x280,-0xc(%ebp)
c00401bc:	c7 45 f0 5e 01 00 00 	movl   $0x15e,-0x10(%ebp)
c00401c3:	8b 45 f0             	mov    -0x10(%ebp),%eax
c00401c6:	8d 48 ec             	lea    -0x14(%eax),%ecx
c00401c9:	8b 45 f4             	mov    -0xc(%ebp),%eax
c00401cc:	8d 50 ff             	lea    -0x1(%eax),%edx
c00401cf:	8b 83 ac ff ff ff    	mov    -0x54(%ebx),%eax
c00401d5:	83 ec 04             	sub    $0x4,%esp
c00401d8:	51                   	push   %ecx
c00401d9:	52                   	push   %edx
c00401da:	6a 00                	push   $0x0
c00401dc:	6a 00                	push   $0x0
c00401de:	6a 0f                	push   $0xf
c00401e0:	ff 75 f4             	pushl  -0xc(%ebp)
c00401e3:	50                   	push   %eax
c00401e4:	e8 67 00 00 00       	call   c0040250 <draw>
c00401e9:	83 c4 20             	add    $0x20,%esp
c00401ec:	8b 45 f0             	mov    -0x10(%ebp),%eax
c00401ef:	8d 70 ec             	lea    -0x14(%eax),%esi
c00401f2:	8b 45 f4             	mov    -0xc(%ebp),%eax
c00401f5:	8d 48 ff             	lea    -0x1(%eax),%ecx
c00401f8:	8b 45 f0             	mov    -0x10(%ebp),%eax
c00401fb:	8d 50 ec             	lea    -0x14(%eax),%edx
c00401fe:	8b 83 ac ff ff ff    	mov    -0x54(%ebx),%eax
c0040204:	83 ec 04             	sub    $0x4,%esp
c0040207:	56                   	push   %esi
c0040208:	51                   	push   %ecx
c0040209:	52                   	push   %edx
c004020a:	6a 00                	push   $0x0
c004020c:	6a 08                	push   $0x8
c004020e:	ff 75 f4             	pushl  -0xc(%ebp)
c0040211:	50                   	push   %eax
c0040212:	e8 39 00 00 00       	call   c0040250 <draw>
c0040217:	83 c4 20             	add    $0x20,%esp
c004021a:	8b 45 f0             	mov    -0x10(%ebp),%eax
c004021d:	8d 70 ec             	lea    -0x14(%eax),%esi
c0040220:	8b 45 f4             	mov    -0xc(%ebp),%eax
c0040223:	8d 48 ff             	lea    -0x1(%eax),%ecx
c0040226:	8b 45 f0             	mov    -0x10(%ebp),%eax
c0040229:	8d 50 ec             	lea    -0x14(%eax),%edx
c004022c:	8b 83 ac ff ff ff    	mov    -0x54(%ebx),%eax
c0040232:	83 ec 04             	sub    $0x4,%esp
c0040235:	56                   	push   %esi
c0040236:	51                   	push   %ecx
c0040237:	52                   	push   %edx
c0040238:	6a 00                	push   $0x0
c004023a:	6a 02                	push   $0x2
c004023c:	ff 75 f4             	pushl  -0xc(%ebp)
c004023f:	50                   	push   %eax
c0040240:	e8 0b 00 00 00       	call   c0040250 <draw>
c0040245:	83 c4 20             	add    $0x20,%esp
c0040248:	90                   	nop
c0040249:	8d 65 f8             	lea    -0x8(%ebp),%esp
c004024c:	5b                   	pop    %ebx
c004024d:	5e                   	pop    %esi
c004024e:	5d                   	pop    %ebp
c004024f:	c3                   	ret    

c0040250 <draw>:
c0040250:	55                   	push   %ebp
c0040251:	89 e5                	mov    %esp,%ebp
c0040253:	83 ec 14             	sub    $0x14,%esp
c0040256:	e8 5c 2a 00 00       	call   c0042cb7 <__x86.get_pc_thunk.ax>
c004025b:	05 79 34 00 00       	add    $0x3479,%eax
c0040260:	8b 45 10             	mov    0x10(%ebp),%eax
c0040263:	88 45 ec             	mov    %al,-0x14(%ebp)
c0040266:	8b 45 18             	mov    0x18(%ebp),%eax
c0040269:	88 45 fe             	mov    %al,-0x2(%ebp)
c004026c:	eb 40                	jmp    c00402ae <draw+0x5e>
c004026e:	8b 45 14             	mov    0x14(%ebp),%eax
c0040271:	88 45 ff             	mov    %al,-0x1(%ebp)
c0040274:	eb 25                	jmp    c004029b <draw+0x4b>
c0040276:	0f b6 45 fe          	movzbl -0x2(%ebp),%eax
c004027a:	0f af 45 0c          	imul   0xc(%ebp),%eax
c004027e:	89 c2                	mov    %eax,%edx
c0040280:	0f b6 45 ff          	movzbl -0x1(%ebp),%eax
c0040284:	01 c2                	add    %eax,%edx
c0040286:	8b 45 08             	mov    0x8(%ebp),%eax
c0040289:	01 c2                	add    %eax,%edx
c004028b:	0f b6 45 ec          	movzbl -0x14(%ebp),%eax
c004028f:	88 02                	mov    %al,(%edx)
c0040291:	0f b6 45 ff          	movzbl -0x1(%ebp),%eax
c0040295:	83 c0 01             	add    $0x1,%eax
c0040298:	88 45 ff             	mov    %al,-0x1(%ebp)
c004029b:	0f b6 45 ff          	movzbl -0x1(%ebp),%eax
c004029f:	39 45 1c             	cmp    %eax,0x1c(%ebp)
c00402a2:	73 d2                	jae    c0040276 <draw+0x26>
c00402a4:	0f b6 45 fe          	movzbl -0x2(%ebp),%eax
c00402a8:	83 c0 01             	add    $0x1,%eax
c00402ab:	88 45 fe             	mov    %al,-0x2(%ebp)
c00402ae:	0f b6 45 fe          	movzbl -0x2(%ebp),%eax
c00402b2:	39 45 20             	cmp    %eax,0x20(%ebp)
c00402b5:	73 b7                	jae    c004026e <draw+0x1e>
c00402b7:	90                   	nop
c00402b8:	c9                   	leave  
c00402b9:	c3                   	ret    

c00402ba <timer_handler>:
c00402ba:	55                   	push   %ebp
c00402bb:	89 e5                	mov    %esp,%ebp
c00402bd:	e8 f5 29 00 00       	call   c0042cb7 <__x86.get_pc_thunk.ax>
c00402c2:	05 12 34 00 00       	add    $0x3412,%eax
c00402c7:	90                   	nop
c00402c8:	5d                   	pop    %ebp
c00402c9:	c3                   	ret    

c00402ca <init_timer>:
c00402ca:	55                   	push   %ebp
c00402cb:	89 e5                	mov    %esp,%ebp
c00402cd:	53                   	push   %ebx
c00402ce:	83 ec 14             	sub    $0x14,%esp
c00402d1:	e8 e5 29 00 00       	call   c0042cbb <__x86.get_pc_thunk.bx>
c00402d6:	81 c3 fe 33 00 00    	add    $0x33fe,%ebx
c00402dc:	c7 c0 30 a0 04 c0    	mov    $0xc004a030,%eax
c00402e2:	c7 00 00 00 00 00    	movl   $0x0,(%eax)
c00402e8:	83 ec 08             	sub    $0x8,%esp
c00402eb:	8d 83 e6 cb ff ff    	lea    -0x341a(%ebx),%eax
c00402f1:	50                   	push   %eax
c00402f2:	6a 20                	push   $0x20
c00402f4:	e8 32 11 00 00       	call   c004142b <register_interrupt_handler>
c00402f9:	83 c4 10             	add    $0x10,%esp
c00402fc:	b8 dc 34 12 00       	mov    $0x1234dc,%eax
c0040301:	ba 00 00 00 00       	mov    $0x0,%edx
c0040306:	f7 75 08             	divl   0x8(%ebp)
c0040309:	89 45 f4             	mov    %eax,-0xc(%ebp)
c004030c:	83 ec 08             	sub    $0x8,%esp
c004030f:	6a 36                	push   $0x36
c0040311:	6a 43                	push   $0x43
c0040313:	e8 f1 24 00 00       	call   c0042809 <outb>
c0040318:	83 c4 10             	add    $0x10,%esp
c004031b:	8b 45 f4             	mov    -0xc(%ebp),%eax
c004031e:	88 45 f3             	mov    %al,-0xd(%ebp)
c0040321:	8b 45 f4             	mov    -0xc(%ebp),%eax
c0040324:	c1 e8 08             	shr    $0x8,%eax
c0040327:	88 45 f2             	mov    %al,-0xe(%ebp)
c004032a:	0f b6 45 f3          	movzbl -0xd(%ebp),%eax
c004032e:	83 ec 08             	sub    $0x8,%esp
c0040331:	50                   	push   %eax
c0040332:	6a 40                	push   $0x40
c0040334:	e8 d0 24 00 00       	call   c0042809 <outb>
c0040339:	83 c4 10             	add    $0x10,%esp
c004033c:	0f b6 45 f2          	movzbl -0xe(%ebp),%eax
c0040340:	83 ec 08             	sub    $0x8,%esp
c0040343:	50                   	push   %eax
c0040344:	6a 40                	push   $0x40
c0040346:	e8 be 24 00 00       	call   c0042809 <outb>
c004034b:	83 c4 10             	add    $0x10,%esp
c004034e:	90                   	nop
c004034f:	8b 5d fc             	mov    -0x4(%ebp),%ebx
c0040352:	c9                   	leave  
c0040353:	c3                   	ret    

c0040354 <isr_handler_dispatcher>:
c0040354:	55                   	push   %ebp
c0040355:	89 e5                	mov    %esp,%ebp
c0040357:	53                   	push   %ebx
c0040358:	83 ec 04             	sub    $0x4,%esp
c004035b:	e8 5b 29 00 00       	call   c0042cbb <__x86.get_pc_thunk.bx>
c0040360:	81 c3 74 33 00 00    	add    $0x3374,%ebx
c0040366:	83 ec 04             	sub    $0x4,%esp
c0040369:	8d 83 44 fd ff ff    	lea    -0x2bc(%ebx),%eax
c004036f:	50                   	push   %eax
c0040370:	6a 04                	push   $0x4
c0040372:	6a 00                	push   $0x0
c0040374:	e8 6e 1a 00 00       	call   c0041de7 <printk_color>
c0040379:	83 c4 10             	add    $0x10,%esp
c004037c:	8b 45 08             	mov    0x8(%ebp),%eax
c004037f:	8b 50 24             	mov    0x24(%eax),%edx
c0040382:	c7 c0 60 a8 04 c0    	mov    $0xc004a860,%eax
c0040388:	8b 04 90             	mov    (%eax,%edx,4),%eax
c004038b:	85 c0                	test   %eax,%eax
c004038d:	74 36                	je     c00403c5 <isr_handler_dispatcher+0x71>
c004038f:	8b 45 08             	mov    0x8(%ebp),%eax
c0040392:	8b 40 24             	mov    0x24(%eax),%eax
c0040395:	50                   	push   %eax
c0040396:	8d 83 5e fd ff ff    	lea    -0x2a2(%ebx),%eax
c004039c:	50                   	push   %eax
c004039d:	6a 04                	push   $0x4
c004039f:	6a 00                	push   $0x0
c00403a1:	e8 41 1a 00 00       	call   c0041de7 <printk_color>
c00403a6:	83 c4 10             	add    $0x10,%esp
c00403a9:	8b 45 08             	mov    0x8(%ebp),%eax
c00403ac:	8b 50 24             	mov    0x24(%eax),%edx
c00403af:	c7 c0 60 a8 04 c0    	mov    $0xc004a860,%eax
c00403b5:	8b 04 90             	mov    (%eax,%edx,4),%eax
c00403b8:	83 ec 0c             	sub    $0xc,%esp
c00403bb:	ff 75 08             	pushl  0x8(%ebp)
c00403be:	ff d0                	call   *%eax
c00403c0:	83 c4 10             	add    $0x10,%esp
c00403c3:	eb 1a                	jmp    c00403df <isr_handler_dispatcher+0x8b>
c00403c5:	8b 45 08             	mov    0x8(%ebp),%eax
c00403c8:	8b 40 24             	mov    0x24(%eax),%eax
c00403cb:	50                   	push   %eax
c00403cc:	8d 83 78 fd ff ff    	lea    -0x288(%ebx),%eax
c00403d2:	50                   	push   %eax
c00403d3:	6a 04                	push   $0x4
c00403d5:	6a 00                	push   $0x0
c00403d7:	e8 0b 1a 00 00       	call   c0041de7 <printk_color>
c00403dc:	83 c4 10             	add    $0x10,%esp
c00403df:	90                   	nop
c00403e0:	8b 5d fc             	mov    -0x4(%ebp),%ebx
c00403e3:	c9                   	leave  
c00403e4:	c3                   	ret    

c00403e5 <irq_handler_dispathcer>:
c00403e5:	55                   	push   %ebp
c00403e6:	89 e5                	mov    %esp,%ebp
c00403e8:	53                   	push   %ebx
c00403e9:	83 ec 04             	sub    $0x4,%esp
c00403ec:	e8 ca 28 00 00       	call   c0042cbb <__x86.get_pc_thunk.bx>
c00403f1:	81 c3 e3 32 00 00    	add    $0x32e3,%ebx
c00403f7:	8b 45 08             	mov    0x8(%ebp),%eax
c00403fa:	8b 40 24             	mov    0x24(%eax),%eax
c00403fd:	83 f8 27             	cmp    $0x27,%eax
c0040400:	76 12                	jbe    c0040414 <irq_handler_dispathcer+0x2f>
c0040402:	83 ec 08             	sub    $0x8,%esp
c0040405:	6a 20                	push   $0x20
c0040407:	68 a0 00 00 00       	push   $0xa0
c004040c:	e8 f8 23 00 00       	call   c0042809 <outb>
c0040411:	83 c4 10             	add    $0x10,%esp
c0040414:	83 ec 08             	sub    $0x8,%esp
c0040417:	6a 20                	push   $0x20
c0040419:	6a 20                	push   $0x20
c004041b:	e8 e9 23 00 00       	call   c0042809 <outb>
c0040420:	83 c4 10             	add    $0x10,%esp
c0040423:	8b 45 08             	mov    0x8(%ebp),%eax
c0040426:	8b 50 24             	mov    0x24(%eax),%edx
c0040429:	c7 c0 60 a8 04 c0    	mov    $0xc004a860,%eax
c004042f:	8b 04 90             	mov    (%eax,%edx,4),%eax
c0040432:	85 c0                	test   %eax,%eax
c0040434:	74 1a                	je     c0040450 <irq_handler_dispathcer+0x6b>
c0040436:	8b 45 08             	mov    0x8(%ebp),%eax
c0040439:	8b 50 24             	mov    0x24(%eax),%edx
c004043c:	c7 c0 60 a8 04 c0    	mov    $0xc004a860,%eax
c0040442:	8b 04 90             	mov    (%eax,%edx,4),%eax
c0040445:	83 ec 0c             	sub    $0xc,%esp
c0040448:	ff 75 08             	pushl  0x8(%ebp)
c004044b:	ff d0                	call   *%eax
c004044d:	83 c4 10             	add    $0x10,%esp
c0040450:	90                   	nop
c0040451:	8b 5d fc             	mov    -0x4(%ebp),%ebx
c0040454:	c9                   	leave  
c0040455:	c3                   	ret    

c0040456 <init_idt_table>:
c0040456:	55                   	push   %ebp
c0040457:	89 e5                	mov    %esp,%ebp
c0040459:	53                   	push   %ebx
c004045a:	83 ec 04             	sub    $0x4,%esp
c004045d:	e8 59 28 00 00       	call   c0042cbb <__x86.get_pc_thunk.bx>
c0040462:	81 c3 72 32 00 00    	add    $0x3272,%ebx
c0040468:	83 ec 08             	sub    $0x8,%esp
c004046b:	68 00 04 00 00       	push   $0x400
c0040470:	c7 c0 60 a8 04 c0    	mov    $0xc004a860,%eax
c0040476:	50                   	push   %eax
c0040477:	e8 fa 24 00 00       	call   c0042976 <bzero>
c004047c:	83 c4 10             	add    $0x10,%esp
c004047f:	c7 c0 60 a0 04 c0    	mov    $0xc004a060,%eax
c0040485:	89 c2                	mov    %eax,%edx
c0040487:	c7 c0 40 a0 04 c0    	mov    $0xc004a040,%eax
c004048d:	89 50 02             	mov    %edx,0x2(%eax)
c0040490:	c7 c0 40 a0 04 c0    	mov    $0xc004a040,%eax
c0040496:	66 c7 00 ff ff       	movw   $0xffff,(%eax)
c004049b:	c7 c0 f7 2a 04 c0    	mov    $0xc0042af7,%eax
c00404a1:	89 c2                	mov    %eax,%edx
c00404a3:	c7 c0 60 a0 04 c0    	mov    $0xc004a060,%eax
c00404a9:	66 89 10             	mov    %dx,(%eax)
c00404ac:	c7 c0 f7 2a 04 c0    	mov    $0xc0042af7,%eax
c00404b2:	c1 e8 10             	shr    $0x10,%eax
c00404b5:	89 c2                	mov    %eax,%edx
c00404b7:	c7 c0 60 a0 04 c0    	mov    $0xc004a060,%eax
c00404bd:	66 89 50 06          	mov    %dx,0x6(%eax)
c00404c1:	c7 c0 60 a0 04 c0    	mov    $0xc004a060,%eax
c00404c7:	66 c7 40 02 08 00    	movw   $0x8,0x2(%eax)
c00404cd:	c7 c0 60 a0 04 c0    	mov    $0xc004a060,%eax
c00404d3:	c6 40 05 8e          	movb   $0x8e,0x5(%eax)
c00404d7:	c7 c0 60 a0 04 c0    	mov    $0xc004a060,%eax
c00404dd:	c6 40 04 00          	movb   $0x0,0x4(%eax)
c00404e1:	c7 c0 fe 2a 04 c0    	mov    $0xc0042afe,%eax
c00404e7:	89 c2                	mov    %eax,%edx
c00404e9:	c7 c0 60 a0 04 c0    	mov    $0xc004a060,%eax
c00404ef:	66 89 50 08          	mov    %dx,0x8(%eax)
c00404f3:	c7 c0 fe 2a 04 c0    	mov    $0xc0042afe,%eax
c00404f9:	c1 e8 10             	shr    $0x10,%eax
c00404fc:	89 c2                	mov    %eax,%edx
c00404fe:	c7 c0 60 a0 04 c0    	mov    $0xc004a060,%eax
c0040504:	66 89 50 0e          	mov    %dx,0xe(%eax)
c0040508:	c7 c0 60 a0 04 c0    	mov    $0xc004a060,%eax
c004050e:	66 c7 40 0a 08 00    	movw   $0x8,0xa(%eax)
c0040514:	c7 c0 60 a0 04 c0    	mov    $0xc004a060,%eax
c004051a:	c6 40 0d 8e          	movb   $0x8e,0xd(%eax)
c004051e:	c7 c0 60 a0 04 c0    	mov    $0xc004a060,%eax
c0040524:	c6 40 0c 00          	movb   $0x0,0xc(%eax)
c0040528:	c7 c0 05 2b 04 c0    	mov    $0xc0042b05,%eax
c004052e:	89 c2                	mov    %eax,%edx
c0040530:	c7 c0 60 a0 04 c0    	mov    $0xc004a060,%eax
c0040536:	66 89 50 10          	mov    %dx,0x10(%eax)
c004053a:	c7 c0 05 2b 04 c0    	mov    $0xc0042b05,%eax
c0040540:	c1 e8 10             	shr    $0x10,%eax
c0040543:	89 c2                	mov    %eax,%edx
c0040545:	c7 c0 60 a0 04 c0    	mov    $0xc004a060,%eax
c004054b:	66 89 50 16          	mov    %dx,0x16(%eax)
c004054f:	c7 c0 60 a0 04 c0    	mov    $0xc004a060,%eax
c0040555:	66 c7 40 12 08 00    	movw   $0x8,0x12(%eax)
c004055b:	c7 c0 60 a0 04 c0    	mov    $0xc004a060,%eax
c0040561:	c6 40 15 8e          	movb   $0x8e,0x15(%eax)
c0040565:	c7 c0 60 a0 04 c0    	mov    $0xc004a060,%eax
c004056b:	c6 40 14 00          	movb   $0x0,0x14(%eax)
c004056f:	c7 c0 0c 2b 04 c0    	mov    $0xc0042b0c,%eax
c0040575:	89 c2                	mov    %eax,%edx
c0040577:	c7 c0 60 a0 04 c0    	mov    $0xc004a060,%eax
c004057d:	66 89 50 18          	mov    %dx,0x18(%eax)
c0040581:	c7 c0 0c 2b 04 c0    	mov    $0xc0042b0c,%eax
c0040587:	c1 e8 10             	shr    $0x10,%eax
c004058a:	89 c2                	mov    %eax,%edx
c004058c:	c7 c0 60 a0 04 c0    	mov    $0xc004a060,%eax
c0040592:	66 89 50 1e          	mov    %dx,0x1e(%eax)
c0040596:	c7 c0 60 a0 04 c0    	mov    $0xc004a060,%eax
c004059c:	66 c7 40 1a 08 00    	movw   $0x8,0x1a(%eax)
c00405a2:	c7 c0 60 a0 04 c0    	mov    $0xc004a060,%eax
c00405a8:	c6 40 1d 8e          	movb   $0x8e,0x1d(%eax)
c00405ac:	c7 c0 60 a0 04 c0    	mov    $0xc004a060,%eax
c00405b2:	c6 40 1c 00          	movb   $0x0,0x1c(%eax)
c00405b6:	c7 c0 13 2b 04 c0    	mov    $0xc0042b13,%eax
c00405bc:	89 c2                	mov    %eax,%edx
c00405be:	c7 c0 60 a0 04 c0    	mov    $0xc004a060,%eax
c00405c4:	66 89 50 20          	mov    %dx,0x20(%eax)
c00405c8:	c7 c0 13 2b 04 c0    	mov    $0xc0042b13,%eax
c00405ce:	c1 e8 10             	shr    $0x10,%eax
c00405d1:	89 c2                	mov    %eax,%edx
c00405d3:	c7 c0 60 a0 04 c0    	mov    $0xc004a060,%eax
c00405d9:	66 89 50 26          	mov    %dx,0x26(%eax)
c00405dd:	c7 c0 60 a0 04 c0    	mov    $0xc004a060,%eax
c00405e3:	66 c7 40 22 08 00    	movw   $0x8,0x22(%eax)
c00405e9:	c7 c0 60 a0 04 c0    	mov    $0xc004a060,%eax
c00405ef:	c6 40 25 8e          	movb   $0x8e,0x25(%eax)
c00405f3:	c7 c0 60 a0 04 c0    	mov    $0xc004a060,%eax
c00405f9:	c6 40 24 00          	movb   $0x0,0x24(%eax)
c00405fd:	c7 c0 1a 2b 04 c0    	mov    $0xc0042b1a,%eax
c0040603:	89 c2                	mov    %eax,%edx
c0040605:	c7 c0 60 a0 04 c0    	mov    $0xc004a060,%eax
c004060b:	66 89 50 28          	mov    %dx,0x28(%eax)
c004060f:	c7 c0 1a 2b 04 c0    	mov    $0xc0042b1a,%eax
c0040615:	c1 e8 10             	shr    $0x10,%eax
c0040618:	89 c2                	mov    %eax,%edx
c004061a:	c7 c0 60 a0 04 c0    	mov    $0xc004a060,%eax
c0040620:	66 89 50 2e          	mov    %dx,0x2e(%eax)
c0040624:	c7 c0 60 a0 04 c0    	mov    $0xc004a060,%eax
c004062a:	66 c7 40 2a 08 00    	movw   $0x8,0x2a(%eax)
c0040630:	c7 c0 60 a0 04 c0    	mov    $0xc004a060,%eax
c0040636:	c6 40 2d 8e          	movb   $0x8e,0x2d(%eax)
c004063a:	c7 c0 60 a0 04 c0    	mov    $0xc004a060,%eax
c0040640:	c6 40 2c 00          	movb   $0x0,0x2c(%eax)
c0040644:	c7 c0 21 2b 04 c0    	mov    $0xc0042b21,%eax
c004064a:	89 c2                	mov    %eax,%edx
c004064c:	c7 c0 60 a0 04 c0    	mov    $0xc004a060,%eax
c0040652:	66 89 50 30          	mov    %dx,0x30(%eax)
c0040656:	c7 c0 21 2b 04 c0    	mov    $0xc0042b21,%eax
c004065c:	c1 e8 10             	shr    $0x10,%eax
c004065f:	89 c2                	mov    %eax,%edx
c0040661:	c7 c0 60 a0 04 c0    	mov    $0xc004a060,%eax
c0040667:	66 89 50 36          	mov    %dx,0x36(%eax)
c004066b:	c7 c0 60 a0 04 c0    	mov    $0xc004a060,%eax
c0040671:	66 c7 40 32 08 00    	movw   $0x8,0x32(%eax)
c0040677:	c7 c0 60 a0 04 c0    	mov    $0xc004a060,%eax
c004067d:	c6 40 35 8e          	movb   $0x8e,0x35(%eax)
c0040681:	c7 c0 60 a0 04 c0    	mov    $0xc004a060,%eax
c0040687:	c6 40 34 00          	movb   $0x0,0x34(%eax)
c004068b:	c7 c0 28 2b 04 c0    	mov    $0xc0042b28,%eax
c0040691:	89 c2                	mov    %eax,%edx
c0040693:	c7 c0 60 a0 04 c0    	mov    $0xc004a060,%eax
c0040699:	66 89 50 38          	mov    %dx,0x38(%eax)
c004069d:	c7 c0 28 2b 04 c0    	mov    $0xc0042b28,%eax
c00406a3:	c1 e8 10             	shr    $0x10,%eax
c00406a6:	89 c2                	mov    %eax,%edx
c00406a8:	c7 c0 60 a0 04 c0    	mov    $0xc004a060,%eax
c00406ae:	66 89 50 3e          	mov    %dx,0x3e(%eax)
c00406b2:	c7 c0 60 a0 04 c0    	mov    $0xc004a060,%eax
c00406b8:	66 c7 40 3a 08 00    	movw   $0x8,0x3a(%eax)
c00406be:	c7 c0 60 a0 04 c0    	mov    $0xc004a060,%eax
c00406c4:	c6 40 3d 8e          	movb   $0x8e,0x3d(%eax)
c00406c8:	c7 c0 60 a0 04 c0    	mov    $0xc004a060,%eax
c00406ce:	c6 40 3c 00          	movb   $0x0,0x3c(%eax)
c00406d2:	c7 c0 2f 2b 04 c0    	mov    $0xc0042b2f,%eax
c00406d8:	89 c2                	mov    %eax,%edx
c00406da:	c7 c0 60 a0 04 c0    	mov    $0xc004a060,%eax
c00406e0:	66 89 50 40          	mov    %dx,0x40(%eax)
c00406e4:	c7 c0 2f 2b 04 c0    	mov    $0xc0042b2f,%eax
c00406ea:	c1 e8 10             	shr    $0x10,%eax
c00406ed:	89 c2                	mov    %eax,%edx
c00406ef:	c7 c0 60 a0 04 c0    	mov    $0xc004a060,%eax
c00406f5:	66 89 50 46          	mov    %dx,0x46(%eax)
c00406f9:	c7 c0 60 a0 04 c0    	mov    $0xc004a060,%eax
c00406ff:	66 c7 40 42 08 00    	movw   $0x8,0x42(%eax)
c0040705:	c7 c0 60 a0 04 c0    	mov    $0xc004a060,%eax
c004070b:	c6 40 45 8e          	movb   $0x8e,0x45(%eax)
c004070f:	c7 c0 60 a0 04 c0    	mov    $0xc004a060,%eax
c0040715:	c6 40 44 00          	movb   $0x0,0x44(%eax)
c0040719:	c7 c0 34 2b 04 c0    	mov    $0xc0042b34,%eax
c004071f:	89 c2                	mov    %eax,%edx
c0040721:	c7 c0 60 a0 04 c0    	mov    $0xc004a060,%eax
c0040727:	66 89 50 48          	mov    %dx,0x48(%eax)
c004072b:	c7 c0 34 2b 04 c0    	mov    $0xc0042b34,%eax
c0040731:	c1 e8 10             	shr    $0x10,%eax
c0040734:	89 c2                	mov    %eax,%edx
c0040736:	c7 c0 60 a0 04 c0    	mov    $0xc004a060,%eax
c004073c:	66 89 50 4e          	mov    %dx,0x4e(%eax)
c0040740:	c7 c0 60 a0 04 c0    	mov    $0xc004a060,%eax
c0040746:	66 c7 40 4a 08 00    	movw   $0x8,0x4a(%eax)
c004074c:	c7 c0 60 a0 04 c0    	mov    $0xc004a060,%eax
c0040752:	c6 40 4d 8e          	movb   $0x8e,0x4d(%eax)
c0040756:	c7 c0 60 a0 04 c0    	mov    $0xc004a060,%eax
c004075c:	c6 40 4c 00          	movb   $0x0,0x4c(%eax)
c0040760:	c7 c0 3b 2b 04 c0    	mov    $0xc0042b3b,%eax
c0040766:	89 c2                	mov    %eax,%edx
c0040768:	c7 c0 60 a0 04 c0    	mov    $0xc004a060,%eax
c004076e:	66 89 50 50          	mov    %dx,0x50(%eax)
c0040772:	c7 c0 3b 2b 04 c0    	mov    $0xc0042b3b,%eax
c0040778:	c1 e8 10             	shr    $0x10,%eax
c004077b:	89 c2                	mov    %eax,%edx
c004077d:	c7 c0 60 a0 04 c0    	mov    $0xc004a060,%eax
c0040783:	66 89 50 56          	mov    %dx,0x56(%eax)
c0040787:	c7 c0 60 a0 04 c0    	mov    $0xc004a060,%eax
c004078d:	66 c7 40 52 08 00    	movw   $0x8,0x52(%eax)
c0040793:	c7 c0 60 a0 04 c0    	mov    $0xc004a060,%eax
c0040799:	c6 40 55 8e          	movb   $0x8e,0x55(%eax)
c004079d:	c7 c0 60 a0 04 c0    	mov    $0xc004a060,%eax
c00407a3:	c6 40 54 00          	movb   $0x0,0x54(%eax)
c00407a7:	c7 c0 40 2b 04 c0    	mov    $0xc0042b40,%eax
c00407ad:	89 c2                	mov    %eax,%edx
c00407af:	c7 c0 60 a0 04 c0    	mov    $0xc004a060,%eax
c00407b5:	66 89 50 58          	mov    %dx,0x58(%eax)
c00407b9:	c7 c0 40 2b 04 c0    	mov    $0xc0042b40,%eax
c00407bf:	c1 e8 10             	shr    $0x10,%eax
c00407c2:	89 c2                	mov    %eax,%edx
c00407c4:	c7 c0 60 a0 04 c0    	mov    $0xc004a060,%eax
c00407ca:	66 89 50 5e          	mov    %dx,0x5e(%eax)
c00407ce:	c7 c0 60 a0 04 c0    	mov    $0xc004a060,%eax
c00407d4:	66 c7 40 5a 08 00    	movw   $0x8,0x5a(%eax)
c00407da:	c7 c0 60 a0 04 c0    	mov    $0xc004a060,%eax
c00407e0:	c6 40 5d 8e          	movb   $0x8e,0x5d(%eax)
c00407e4:	c7 c0 60 a0 04 c0    	mov    $0xc004a060,%eax
c00407ea:	c6 40 5c 00          	movb   $0x0,0x5c(%eax)
c00407ee:	c7 c0 45 2b 04 c0    	mov    $0xc0042b45,%eax
c00407f4:	89 c2                	mov    %eax,%edx
c00407f6:	c7 c0 60 a0 04 c0    	mov    $0xc004a060,%eax
c00407fc:	66 89 50 60          	mov    %dx,0x60(%eax)
c0040800:	c7 c0 45 2b 04 c0    	mov    $0xc0042b45,%eax
c0040806:	c1 e8 10             	shr    $0x10,%eax
c0040809:	89 c2                	mov    %eax,%edx
c004080b:	c7 c0 60 a0 04 c0    	mov    $0xc004a060,%eax
c0040811:	66 89 50 66          	mov    %dx,0x66(%eax)
c0040815:	c7 c0 60 a0 04 c0    	mov    $0xc004a060,%eax
c004081b:	66 c7 40 62 08 00    	movw   $0x8,0x62(%eax)
c0040821:	c7 c0 60 a0 04 c0    	mov    $0xc004a060,%eax
c0040827:	c6 40 65 8e          	movb   $0x8e,0x65(%eax)
c004082b:	c7 c0 60 a0 04 c0    	mov    $0xc004a060,%eax
c0040831:	c6 40 64 00          	movb   $0x0,0x64(%eax)
c0040835:	c7 c0 4a 2b 04 c0    	mov    $0xc0042b4a,%eax
c004083b:	89 c2                	mov    %eax,%edx
c004083d:	c7 c0 60 a0 04 c0    	mov    $0xc004a060,%eax
c0040843:	66 89 50 68          	mov    %dx,0x68(%eax)
c0040847:	c7 c0 4a 2b 04 c0    	mov    $0xc0042b4a,%eax
c004084d:	c1 e8 10             	shr    $0x10,%eax
c0040850:	89 c2                	mov    %eax,%edx
c0040852:	c7 c0 60 a0 04 c0    	mov    $0xc004a060,%eax
c0040858:	66 89 50 6e          	mov    %dx,0x6e(%eax)
c004085c:	c7 c0 60 a0 04 c0    	mov    $0xc004a060,%eax
c0040862:	66 c7 40 6a 08 00    	movw   $0x8,0x6a(%eax)
c0040868:	c7 c0 60 a0 04 c0    	mov    $0xc004a060,%eax
c004086e:	c6 40 6d 8e          	movb   $0x8e,0x6d(%eax)
c0040872:	c7 c0 60 a0 04 c0    	mov    $0xc004a060,%eax
c0040878:	c6 40 6c 00          	movb   $0x0,0x6c(%eax)
c004087c:	c7 c0 52 2b 04 c0    	mov    $0xc0042b52,%eax
c0040882:	89 c2                	mov    %eax,%edx
c0040884:	c7 c0 60 a0 04 c0    	mov    $0xc004a060,%eax
c004088a:	66 89 50 70          	mov    %dx,0x70(%eax)
c004088e:	c7 c0 52 2b 04 c0    	mov    $0xc0042b52,%eax
c0040894:	c1 e8 10             	shr    $0x10,%eax
c0040897:	89 c2                	mov    %eax,%edx
c0040899:	c7 c0 60 a0 04 c0    	mov    $0xc004a060,%eax
c004089f:	66 89 50 76          	mov    %dx,0x76(%eax)
c00408a3:	c7 c0 60 a0 04 c0    	mov    $0xc004a060,%eax
c00408a9:	66 c7 40 72 08 00    	movw   $0x8,0x72(%eax)
c00408af:	c7 c0 60 a0 04 c0    	mov    $0xc004a060,%eax
c00408b5:	c6 40 75 8e          	movb   $0x8e,0x75(%eax)
c00408b9:	c7 c0 60 a0 04 c0    	mov    $0xc004a060,%eax
c00408bf:	c6 40 74 00          	movb   $0x0,0x74(%eax)
c00408c3:	c7 c0 5a 2b 04 c0    	mov    $0xc0042b5a,%eax
c00408c9:	89 c2                	mov    %eax,%edx
c00408cb:	c7 c0 60 a0 04 c0    	mov    $0xc004a060,%eax
c00408d1:	66 89 50 78          	mov    %dx,0x78(%eax)
c00408d5:	c7 c0 5a 2b 04 c0    	mov    $0xc0042b5a,%eax
c00408db:	c1 e8 10             	shr    $0x10,%eax
c00408de:	89 c2                	mov    %eax,%edx
c00408e0:	c7 c0 60 a0 04 c0    	mov    $0xc004a060,%eax
c00408e6:	66 89 50 7e          	mov    %dx,0x7e(%eax)
c00408ea:	c7 c0 60 a0 04 c0    	mov    $0xc004a060,%eax
c00408f0:	66 c7 40 7a 08 00    	movw   $0x8,0x7a(%eax)
c00408f6:	c7 c0 60 a0 04 c0    	mov    $0xc004a060,%eax
c00408fc:	c6 40 7d 8e          	movb   $0x8e,0x7d(%eax)
c0040900:	c7 c0 60 a0 04 c0    	mov    $0xc004a060,%eax
c0040906:	c6 40 7c 00          	movb   $0x0,0x7c(%eax)
c004090a:	c7 c0 64 2b 04 c0    	mov    $0xc0042b64,%eax
c0040910:	89 c2                	mov    %eax,%edx
c0040912:	c7 c0 60 a0 04 c0    	mov    $0xc004a060,%eax
c0040918:	66 89 90 80 00 00 00 	mov    %dx,0x80(%eax)
c004091f:	c7 c0 64 2b 04 c0    	mov    $0xc0042b64,%eax
c0040925:	c1 e8 10             	shr    $0x10,%eax
c0040928:	89 c2                	mov    %eax,%edx
c004092a:	c7 c0 60 a0 04 c0    	mov    $0xc004a060,%eax
c0040930:	66 89 90 86 00 00 00 	mov    %dx,0x86(%eax)
c0040937:	c7 c0 60 a0 04 c0    	mov    $0xc004a060,%eax
c004093d:	66 c7 80 82 00 00 00 	movw   $0x8,0x82(%eax)
c0040944:	08 00 
c0040946:	c7 c0 60 a0 04 c0    	mov    $0xc004a060,%eax
c004094c:	c6 80 85 00 00 00 8e 	movb   $0x8e,0x85(%eax)
c0040953:	c7 c0 60 a0 04 c0    	mov    $0xc004a060,%eax
c0040959:	c6 80 84 00 00 00 00 	movb   $0x0,0x84(%eax)
c0040960:	c7 c0 6e 2b 04 c0    	mov    $0xc0042b6e,%eax
c0040966:	89 c2                	mov    %eax,%edx
c0040968:	c7 c0 60 a0 04 c0    	mov    $0xc004a060,%eax
c004096e:	66 89 90 88 00 00 00 	mov    %dx,0x88(%eax)
c0040975:	c7 c0 6e 2b 04 c0    	mov    $0xc0042b6e,%eax
c004097b:	c1 e8 10             	shr    $0x10,%eax
c004097e:	89 c2                	mov    %eax,%edx
c0040980:	c7 c0 60 a0 04 c0    	mov    $0xc004a060,%eax
c0040986:	66 89 90 8e 00 00 00 	mov    %dx,0x8e(%eax)
c004098d:	c7 c0 60 a0 04 c0    	mov    $0xc004a060,%eax
c0040993:	66 c7 80 8a 00 00 00 	movw   $0x8,0x8a(%eax)
c004099a:	08 00 
c004099c:	c7 c0 60 a0 04 c0    	mov    $0xc004a060,%eax
c00409a2:	c6 80 8d 00 00 00 8e 	movb   $0x8e,0x8d(%eax)
c00409a9:	c7 c0 60 a0 04 c0    	mov    $0xc004a060,%eax
c00409af:	c6 80 8c 00 00 00 00 	movb   $0x0,0x8c(%eax)
c00409b6:	c7 c0 76 2b 04 c0    	mov    $0xc0042b76,%eax
c00409bc:	89 c2                	mov    %eax,%edx
c00409be:	c7 c0 60 a0 04 c0    	mov    $0xc004a060,%eax
c00409c4:	66 89 90 90 00 00 00 	mov    %dx,0x90(%eax)
c00409cb:	c7 c0 76 2b 04 c0    	mov    $0xc0042b76,%eax
c00409d1:	c1 e8 10             	shr    $0x10,%eax
c00409d4:	89 c2                	mov    %eax,%edx
c00409d6:	c7 c0 60 a0 04 c0    	mov    $0xc004a060,%eax
c00409dc:	66 89 90 96 00 00 00 	mov    %dx,0x96(%eax)
c00409e3:	c7 c0 60 a0 04 c0    	mov    $0xc004a060,%eax
c00409e9:	66 c7 80 92 00 00 00 	movw   $0x8,0x92(%eax)
c00409f0:	08 00 
c00409f2:	c7 c0 60 a0 04 c0    	mov    $0xc004a060,%eax
c00409f8:	c6 80 95 00 00 00 8e 	movb   $0x8e,0x95(%eax)
c00409ff:	c7 c0 60 a0 04 c0    	mov    $0xc004a060,%eax
c0040a05:	c6 80 94 00 00 00 00 	movb   $0x0,0x94(%eax)
c0040a0c:	c7 c0 80 2b 04 c0    	mov    $0xc0042b80,%eax
c0040a12:	89 c2                	mov    %eax,%edx
c0040a14:	c7 c0 60 a0 04 c0    	mov    $0xc004a060,%eax
c0040a1a:	66 89 90 98 00 00 00 	mov    %dx,0x98(%eax)
c0040a21:	c7 c0 80 2b 04 c0    	mov    $0xc0042b80,%eax
c0040a27:	c1 e8 10             	shr    $0x10,%eax
c0040a2a:	89 c2                	mov    %eax,%edx
c0040a2c:	c7 c0 60 a0 04 c0    	mov    $0xc004a060,%eax
c0040a32:	66 89 90 9e 00 00 00 	mov    %dx,0x9e(%eax)
c0040a39:	c7 c0 60 a0 04 c0    	mov    $0xc004a060,%eax
c0040a3f:	66 c7 80 9a 00 00 00 	movw   $0x8,0x9a(%eax)
c0040a46:	08 00 
c0040a48:	c7 c0 60 a0 04 c0    	mov    $0xc004a060,%eax
c0040a4e:	c6 80 9d 00 00 00 8e 	movb   $0x8e,0x9d(%eax)
c0040a55:	c7 c0 60 a0 04 c0    	mov    $0xc004a060,%eax
c0040a5b:	c6 80 9c 00 00 00 00 	movb   $0x0,0x9c(%eax)
c0040a62:	c7 c0 8a 2b 04 c0    	mov    $0xc0042b8a,%eax
c0040a68:	89 c2                	mov    %eax,%edx
c0040a6a:	c7 c0 60 a0 04 c0    	mov    $0xc004a060,%eax
c0040a70:	66 89 90 a0 00 00 00 	mov    %dx,0xa0(%eax)
c0040a77:	c7 c0 8a 2b 04 c0    	mov    $0xc0042b8a,%eax
c0040a7d:	c1 e8 10             	shr    $0x10,%eax
c0040a80:	89 c2                	mov    %eax,%edx
c0040a82:	c7 c0 60 a0 04 c0    	mov    $0xc004a060,%eax
c0040a88:	66 89 90 a6 00 00 00 	mov    %dx,0xa6(%eax)
c0040a8f:	c7 c0 60 a0 04 c0    	mov    $0xc004a060,%eax
c0040a95:	66 c7 80 a2 00 00 00 	movw   $0x8,0xa2(%eax)
c0040a9c:	08 00 
c0040a9e:	c7 c0 60 a0 04 c0    	mov    $0xc004a060,%eax
c0040aa4:	c6 80 a5 00 00 00 8e 	movb   $0x8e,0xa5(%eax)
c0040aab:	c7 c0 60 a0 04 c0    	mov    $0xc004a060,%eax
c0040ab1:	c6 80 a4 00 00 00 00 	movb   $0x0,0xa4(%eax)
c0040ab8:	c7 c0 94 2b 04 c0    	mov    $0xc0042b94,%eax
c0040abe:	89 c2                	mov    %eax,%edx
c0040ac0:	c7 c0 60 a0 04 c0    	mov    $0xc004a060,%eax
c0040ac6:	66 89 90 a8 00 00 00 	mov    %dx,0xa8(%eax)
c0040acd:	c7 c0 94 2b 04 c0    	mov    $0xc0042b94,%eax
c0040ad3:	c1 e8 10             	shr    $0x10,%eax
c0040ad6:	89 c2                	mov    %eax,%edx
c0040ad8:	c7 c0 60 a0 04 c0    	mov    $0xc004a060,%eax
c0040ade:	66 89 90 ae 00 00 00 	mov    %dx,0xae(%eax)
c0040ae5:	c7 c0 60 a0 04 c0    	mov    $0xc004a060,%eax
c0040aeb:	66 c7 80 aa 00 00 00 	movw   $0x8,0xaa(%eax)
c0040af2:	08 00 
c0040af4:	c7 c0 60 a0 04 c0    	mov    $0xc004a060,%eax
c0040afa:	c6 80 ad 00 00 00 8e 	movb   $0x8e,0xad(%eax)
c0040b01:	c7 c0 60 a0 04 c0    	mov    $0xc004a060,%eax
c0040b07:	c6 80 ac 00 00 00 00 	movb   $0x0,0xac(%eax)
c0040b0e:	c7 c0 9e 2b 04 c0    	mov    $0xc0042b9e,%eax
c0040b14:	89 c2                	mov    %eax,%edx
c0040b16:	c7 c0 60 a0 04 c0    	mov    $0xc004a060,%eax
c0040b1c:	66 89 90 b0 00 00 00 	mov    %dx,0xb0(%eax)
c0040b23:	c7 c0 9e 2b 04 c0    	mov    $0xc0042b9e,%eax
c0040b29:	c1 e8 10             	shr    $0x10,%eax
c0040b2c:	89 c2                	mov    %eax,%edx
c0040b2e:	c7 c0 60 a0 04 c0    	mov    $0xc004a060,%eax
c0040b34:	66 89 90 b6 00 00 00 	mov    %dx,0xb6(%eax)
c0040b3b:	c7 c0 60 a0 04 c0    	mov    $0xc004a060,%eax
c0040b41:	66 c7 80 b2 00 00 00 	movw   $0x8,0xb2(%eax)
c0040b48:	08 00 
c0040b4a:	c7 c0 60 a0 04 c0    	mov    $0xc004a060,%eax
c0040b50:	c6 80 b5 00 00 00 8e 	movb   $0x8e,0xb5(%eax)
c0040b57:	c7 c0 60 a0 04 c0    	mov    $0xc004a060,%eax
c0040b5d:	c6 80 b4 00 00 00 00 	movb   $0x0,0xb4(%eax)
c0040b64:	c7 c0 a8 2b 04 c0    	mov    $0xc0042ba8,%eax
c0040b6a:	89 c2                	mov    %eax,%edx
c0040b6c:	c7 c0 60 a0 04 c0    	mov    $0xc004a060,%eax
c0040b72:	66 89 90 b8 00 00 00 	mov    %dx,0xb8(%eax)
c0040b79:	c7 c0 a8 2b 04 c0    	mov    $0xc0042ba8,%eax
c0040b7f:	c1 e8 10             	shr    $0x10,%eax
c0040b82:	89 c2                	mov    %eax,%edx
c0040b84:	c7 c0 60 a0 04 c0    	mov    $0xc004a060,%eax
c0040b8a:	66 89 90 be 00 00 00 	mov    %dx,0xbe(%eax)
c0040b91:	c7 c0 60 a0 04 c0    	mov    $0xc004a060,%eax
c0040b97:	66 c7 80 ba 00 00 00 	movw   $0x8,0xba(%eax)
c0040b9e:	08 00 
c0040ba0:	c7 c0 60 a0 04 c0    	mov    $0xc004a060,%eax
c0040ba6:	c6 80 bd 00 00 00 8e 	movb   $0x8e,0xbd(%eax)
c0040bad:	c7 c0 60 a0 04 c0    	mov    $0xc004a060,%eax
c0040bb3:	c6 80 bc 00 00 00 00 	movb   $0x0,0xbc(%eax)
c0040bba:	c7 c0 b2 2b 04 c0    	mov    $0xc0042bb2,%eax
c0040bc0:	89 c2                	mov    %eax,%edx
c0040bc2:	c7 c0 60 a0 04 c0    	mov    $0xc004a060,%eax
c0040bc8:	66 89 90 c0 00 00 00 	mov    %dx,0xc0(%eax)
c0040bcf:	c7 c0 b2 2b 04 c0    	mov    $0xc0042bb2,%eax
c0040bd5:	c1 e8 10             	shr    $0x10,%eax
c0040bd8:	89 c2                	mov    %eax,%edx
c0040bda:	c7 c0 60 a0 04 c0    	mov    $0xc004a060,%eax
c0040be0:	66 89 90 c6 00 00 00 	mov    %dx,0xc6(%eax)
c0040be7:	c7 c0 60 a0 04 c0    	mov    $0xc004a060,%eax
c0040bed:	66 c7 80 c2 00 00 00 	movw   $0x8,0xc2(%eax)
c0040bf4:	08 00 
c0040bf6:	c7 c0 60 a0 04 c0    	mov    $0xc004a060,%eax
c0040bfc:	c6 80 c5 00 00 00 8e 	movb   $0x8e,0xc5(%eax)
c0040c03:	c7 c0 60 a0 04 c0    	mov    $0xc004a060,%eax
c0040c09:	c6 80 c4 00 00 00 00 	movb   $0x0,0xc4(%eax)
c0040c10:	c7 c0 bc 2b 04 c0    	mov    $0xc0042bbc,%eax
c0040c16:	89 c2                	mov    %eax,%edx
c0040c18:	c7 c0 60 a0 04 c0    	mov    $0xc004a060,%eax
c0040c1e:	66 89 90 c8 00 00 00 	mov    %dx,0xc8(%eax)
c0040c25:	c7 c0 bc 2b 04 c0    	mov    $0xc0042bbc,%eax
c0040c2b:	c1 e8 10             	shr    $0x10,%eax
c0040c2e:	89 c2                	mov    %eax,%edx
c0040c30:	c7 c0 60 a0 04 c0    	mov    $0xc004a060,%eax
c0040c36:	66 89 90 ce 00 00 00 	mov    %dx,0xce(%eax)
c0040c3d:	c7 c0 60 a0 04 c0    	mov    $0xc004a060,%eax
c0040c43:	66 c7 80 ca 00 00 00 	movw   $0x8,0xca(%eax)
c0040c4a:	08 00 
c0040c4c:	c7 c0 60 a0 04 c0    	mov    $0xc004a060,%eax
c0040c52:	c6 80 cd 00 00 00 8e 	movb   $0x8e,0xcd(%eax)
c0040c59:	c7 c0 60 a0 04 c0    	mov    $0xc004a060,%eax
c0040c5f:	c6 80 cc 00 00 00 00 	movb   $0x0,0xcc(%eax)
c0040c66:	c7 c0 c6 2b 04 c0    	mov    $0xc0042bc6,%eax
c0040c6c:	89 c2                	mov    %eax,%edx
c0040c6e:	c7 c0 60 a0 04 c0    	mov    $0xc004a060,%eax
c0040c74:	66 89 90 d0 00 00 00 	mov    %dx,0xd0(%eax)
c0040c7b:	c7 c0 c6 2b 04 c0    	mov    $0xc0042bc6,%eax
c0040c81:	c1 e8 10             	shr    $0x10,%eax
c0040c84:	89 c2                	mov    %eax,%edx
c0040c86:	c7 c0 60 a0 04 c0    	mov    $0xc004a060,%eax
c0040c8c:	66 89 90 d6 00 00 00 	mov    %dx,0xd6(%eax)
c0040c93:	c7 c0 60 a0 04 c0    	mov    $0xc004a060,%eax
c0040c99:	66 c7 80 d2 00 00 00 	movw   $0x8,0xd2(%eax)
c0040ca0:	08 00 
c0040ca2:	c7 c0 60 a0 04 c0    	mov    $0xc004a060,%eax
c0040ca8:	c6 80 d5 00 00 00 8e 	movb   $0x8e,0xd5(%eax)
c0040caf:	c7 c0 60 a0 04 c0    	mov    $0xc004a060,%eax
c0040cb5:	c6 80 d4 00 00 00 00 	movb   $0x0,0xd4(%eax)
c0040cbc:	c7 c0 d0 2b 04 c0    	mov    $0xc0042bd0,%eax
c0040cc2:	89 c2                	mov    %eax,%edx
c0040cc4:	c7 c0 60 a0 04 c0    	mov    $0xc004a060,%eax
c0040cca:	66 89 90 d8 00 00 00 	mov    %dx,0xd8(%eax)
c0040cd1:	c7 c0 d0 2b 04 c0    	mov    $0xc0042bd0,%eax
c0040cd7:	c1 e8 10             	shr    $0x10,%eax
c0040cda:	89 c2                	mov    %eax,%edx
c0040cdc:	c7 c0 60 a0 04 c0    	mov    $0xc004a060,%eax
c0040ce2:	66 89 90 de 00 00 00 	mov    %dx,0xde(%eax)
c0040ce9:	c7 c0 60 a0 04 c0    	mov    $0xc004a060,%eax
c0040cef:	66 c7 80 da 00 00 00 	movw   $0x8,0xda(%eax)
c0040cf6:	08 00 
c0040cf8:	c7 c0 60 a0 04 c0    	mov    $0xc004a060,%eax
c0040cfe:	c6 80 dd 00 00 00 8e 	movb   $0x8e,0xdd(%eax)
c0040d05:	c7 c0 60 a0 04 c0    	mov    $0xc004a060,%eax
c0040d0b:	c6 80 dc 00 00 00 00 	movb   $0x0,0xdc(%eax)
c0040d12:	c7 c0 da 2b 04 c0    	mov    $0xc0042bda,%eax
c0040d18:	89 c2                	mov    %eax,%edx
c0040d1a:	c7 c0 60 a0 04 c0    	mov    $0xc004a060,%eax
c0040d20:	66 89 90 e0 00 00 00 	mov    %dx,0xe0(%eax)
c0040d27:	c7 c0 da 2b 04 c0    	mov    $0xc0042bda,%eax
c0040d2d:	c1 e8 10             	shr    $0x10,%eax
c0040d30:	89 c2                	mov    %eax,%edx
c0040d32:	c7 c0 60 a0 04 c0    	mov    $0xc004a060,%eax
c0040d38:	66 89 90 e6 00 00 00 	mov    %dx,0xe6(%eax)
c0040d3f:	c7 c0 60 a0 04 c0    	mov    $0xc004a060,%eax
c0040d45:	66 c7 80 e2 00 00 00 	movw   $0x8,0xe2(%eax)
c0040d4c:	08 00 
c0040d4e:	c7 c0 60 a0 04 c0    	mov    $0xc004a060,%eax
c0040d54:	c6 80 e5 00 00 00 8e 	movb   $0x8e,0xe5(%eax)
c0040d5b:	c7 c0 60 a0 04 c0    	mov    $0xc004a060,%eax
c0040d61:	c6 80 e4 00 00 00 00 	movb   $0x0,0xe4(%eax)
c0040d68:	c7 c0 e4 2b 04 c0    	mov    $0xc0042be4,%eax
c0040d6e:	89 c2                	mov    %eax,%edx
c0040d70:	c7 c0 60 a0 04 c0    	mov    $0xc004a060,%eax
c0040d76:	66 89 90 e8 00 00 00 	mov    %dx,0xe8(%eax)
c0040d7d:	c7 c0 e4 2b 04 c0    	mov    $0xc0042be4,%eax
c0040d83:	c1 e8 10             	shr    $0x10,%eax
c0040d86:	89 c2                	mov    %eax,%edx
c0040d88:	c7 c0 60 a0 04 c0    	mov    $0xc004a060,%eax
c0040d8e:	66 89 90 ee 00 00 00 	mov    %dx,0xee(%eax)
c0040d95:	c7 c0 60 a0 04 c0    	mov    $0xc004a060,%eax
c0040d9b:	66 c7 80 ea 00 00 00 	movw   $0x8,0xea(%eax)
c0040da2:	08 00 
c0040da4:	c7 c0 60 a0 04 c0    	mov    $0xc004a060,%eax
c0040daa:	c6 80 ed 00 00 00 8e 	movb   $0x8e,0xed(%eax)
c0040db1:	c7 c0 60 a0 04 c0    	mov    $0xc004a060,%eax
c0040db7:	c6 80 ec 00 00 00 00 	movb   $0x0,0xec(%eax)
c0040dbe:	c7 c0 ee 2b 04 c0    	mov    $0xc0042bee,%eax
c0040dc4:	89 c2                	mov    %eax,%edx
c0040dc6:	c7 c0 60 a0 04 c0    	mov    $0xc004a060,%eax
c0040dcc:	66 89 90 f0 00 00 00 	mov    %dx,0xf0(%eax)
c0040dd3:	c7 c0 ee 2b 04 c0    	mov    $0xc0042bee,%eax
c0040dd9:	c1 e8 10             	shr    $0x10,%eax
c0040ddc:	89 c2                	mov    %eax,%edx
c0040dde:	c7 c0 60 a0 04 c0    	mov    $0xc004a060,%eax
c0040de4:	66 89 90 f6 00 00 00 	mov    %dx,0xf6(%eax)
c0040deb:	c7 c0 60 a0 04 c0    	mov    $0xc004a060,%eax
c0040df1:	66 c7 80 f2 00 00 00 	movw   $0x8,0xf2(%eax)
c0040df8:	08 00 
c0040dfa:	c7 c0 60 a0 04 c0    	mov    $0xc004a060,%eax
c0040e00:	c6 80 f5 00 00 00 8e 	movb   $0x8e,0xf5(%eax)
c0040e07:	c7 c0 60 a0 04 c0    	mov    $0xc004a060,%eax
c0040e0d:	c6 80 f4 00 00 00 00 	movb   $0x0,0xf4(%eax)
c0040e14:	c7 c0 f8 2b 04 c0    	mov    $0xc0042bf8,%eax
c0040e1a:	89 c2                	mov    %eax,%edx
c0040e1c:	c7 c0 60 a0 04 c0    	mov    $0xc004a060,%eax
c0040e22:	66 89 90 f8 00 00 00 	mov    %dx,0xf8(%eax)
c0040e29:	c7 c0 f8 2b 04 c0    	mov    $0xc0042bf8,%eax
c0040e2f:	c1 e8 10             	shr    $0x10,%eax
c0040e32:	89 c2                	mov    %eax,%edx
c0040e34:	c7 c0 60 a0 04 c0    	mov    $0xc004a060,%eax
c0040e3a:	66 89 90 fe 00 00 00 	mov    %dx,0xfe(%eax)
c0040e41:	c7 c0 60 a0 04 c0    	mov    $0xc004a060,%eax
c0040e47:	66 c7 80 fa 00 00 00 	movw   $0x8,0xfa(%eax)
c0040e4e:	08 00 
c0040e50:	c7 c0 60 a0 04 c0    	mov    $0xc004a060,%eax
c0040e56:	c6 80 fd 00 00 00 8e 	movb   $0x8e,0xfd(%eax)
c0040e5d:	c7 c0 60 a0 04 c0    	mov    $0xc004a060,%eax
c0040e63:	c6 80 fc 00 00 00 00 	movb   $0x0,0xfc(%eax)
c0040e6a:	c7 c0 02 2c 04 c0    	mov    $0xc0042c02,%eax
c0040e70:	89 c2                	mov    %eax,%edx
c0040e72:	c7 c0 60 a0 04 c0    	mov    $0xc004a060,%eax
c0040e78:	66 89 90 f8 07 00 00 	mov    %dx,0x7f8(%eax)
c0040e7f:	c7 c0 02 2c 04 c0    	mov    $0xc0042c02,%eax
c0040e85:	c1 e8 10             	shr    $0x10,%eax
c0040e88:	89 c2                	mov    %eax,%edx
c0040e8a:	c7 c0 60 a0 04 c0    	mov    $0xc004a060,%eax
c0040e90:	66 89 90 fe 07 00 00 	mov    %dx,0x7fe(%eax)
c0040e97:	c7 c0 60 a0 04 c0    	mov    $0xc004a060,%eax
c0040e9d:	66 c7 80 fa 07 00 00 	movw   $0x8,0x7fa(%eax)
c0040ea4:	08 00 
c0040ea6:	c7 c0 60 a0 04 c0    	mov    $0xc004a060,%eax
c0040eac:	c6 80 fd 07 00 00 8e 	movb   $0x8e,0x7fd(%eax)
c0040eb3:	c7 c0 60 a0 04 c0    	mov    $0xc004a060,%eax
c0040eb9:	c6 80 fc 07 00 00 00 	movb   $0x0,0x7fc(%eax)
c0040ec0:	c7 c0 3b 2c 04 c0    	mov    $0xc0042c3b,%eax
c0040ec6:	89 c2                	mov    %eax,%edx
c0040ec8:	c7 c0 60 a0 04 c0    	mov    $0xc004a060,%eax
c0040ece:	66 89 90 00 01 00 00 	mov    %dx,0x100(%eax)
c0040ed5:	c7 c0 3b 2c 04 c0    	mov    $0xc0042c3b,%eax
c0040edb:	c1 e8 10             	shr    $0x10,%eax
c0040ede:	89 c2                	mov    %eax,%edx
c0040ee0:	c7 c0 60 a0 04 c0    	mov    $0xc004a060,%eax
c0040ee6:	66 89 90 06 01 00 00 	mov    %dx,0x106(%eax)
c0040eed:	c7 c0 60 a0 04 c0    	mov    $0xc004a060,%eax
c0040ef3:	66 c7 80 02 01 00 00 	movw   $0x8,0x102(%eax)
c0040efa:	08 00 
c0040efc:	c7 c0 60 a0 04 c0    	mov    $0xc004a060,%eax
c0040f02:	c6 80 05 01 00 00 8e 	movb   $0x8e,0x105(%eax)
c0040f09:	c7 c0 60 a0 04 c0    	mov    $0xc004a060,%eax
c0040f0f:	c6 80 04 01 00 00 00 	movb   $0x0,0x104(%eax)
c0040f16:	c7 c0 42 2c 04 c0    	mov    $0xc0042c42,%eax
c0040f1c:	89 c2                	mov    %eax,%edx
c0040f1e:	c7 c0 60 a0 04 c0    	mov    $0xc004a060,%eax
c0040f24:	66 89 90 08 01 00 00 	mov    %dx,0x108(%eax)
c0040f2b:	c7 c0 42 2c 04 c0    	mov    $0xc0042c42,%eax
c0040f31:	c1 e8 10             	shr    $0x10,%eax
c0040f34:	89 c2                	mov    %eax,%edx
c0040f36:	c7 c0 60 a0 04 c0    	mov    $0xc004a060,%eax
c0040f3c:	66 89 90 0e 01 00 00 	mov    %dx,0x10e(%eax)
c0040f43:	c7 c0 60 a0 04 c0    	mov    $0xc004a060,%eax
c0040f49:	66 c7 80 0a 01 00 00 	movw   $0x8,0x10a(%eax)
c0040f50:	08 00 
c0040f52:	c7 c0 60 a0 04 c0    	mov    $0xc004a060,%eax
c0040f58:	c6 80 0d 01 00 00 8e 	movb   $0x8e,0x10d(%eax)
c0040f5f:	c7 c0 60 a0 04 c0    	mov    $0xc004a060,%eax
c0040f65:	c6 80 0c 01 00 00 00 	movb   $0x0,0x10c(%eax)
c0040f6c:	c7 c0 49 2c 04 c0    	mov    $0xc0042c49,%eax
c0040f72:	89 c2                	mov    %eax,%edx
c0040f74:	c7 c0 60 a0 04 c0    	mov    $0xc004a060,%eax
c0040f7a:	66 89 90 10 01 00 00 	mov    %dx,0x110(%eax)
c0040f81:	c7 c0 49 2c 04 c0    	mov    $0xc0042c49,%eax
c0040f87:	c1 e8 10             	shr    $0x10,%eax
c0040f8a:	89 c2                	mov    %eax,%edx
c0040f8c:	c7 c0 60 a0 04 c0    	mov    $0xc004a060,%eax
c0040f92:	66 89 90 16 01 00 00 	mov    %dx,0x116(%eax)
c0040f99:	c7 c0 60 a0 04 c0    	mov    $0xc004a060,%eax
c0040f9f:	66 c7 80 12 01 00 00 	movw   $0x8,0x112(%eax)
c0040fa6:	08 00 
c0040fa8:	c7 c0 60 a0 04 c0    	mov    $0xc004a060,%eax
c0040fae:	c6 80 15 01 00 00 8e 	movb   $0x8e,0x115(%eax)
c0040fb5:	c7 c0 60 a0 04 c0    	mov    $0xc004a060,%eax
c0040fbb:	c6 80 14 01 00 00 00 	movb   $0x0,0x114(%eax)
c0040fc2:	c7 c0 50 2c 04 c0    	mov    $0xc0042c50,%eax
c0040fc8:	89 c2                	mov    %eax,%edx
c0040fca:	c7 c0 60 a0 04 c0    	mov    $0xc004a060,%eax
c0040fd0:	66 89 90 18 01 00 00 	mov    %dx,0x118(%eax)
c0040fd7:	c7 c0 50 2c 04 c0    	mov    $0xc0042c50,%eax
c0040fdd:	c1 e8 10             	shr    $0x10,%eax
c0040fe0:	89 c2                	mov    %eax,%edx
c0040fe2:	c7 c0 60 a0 04 c0    	mov    $0xc004a060,%eax
c0040fe8:	66 89 90 1e 01 00 00 	mov    %dx,0x11e(%eax)
c0040fef:	c7 c0 60 a0 04 c0    	mov    $0xc004a060,%eax
c0040ff5:	66 c7 80 1a 01 00 00 	movw   $0x8,0x11a(%eax)
c0040ffc:	08 00 
c0040ffe:	c7 c0 60 a0 04 c0    	mov    $0xc004a060,%eax
c0041004:	c6 80 1d 01 00 00 8e 	movb   $0x8e,0x11d(%eax)
c004100b:	c7 c0 60 a0 04 c0    	mov    $0xc004a060,%eax
c0041011:	c6 80 1c 01 00 00 00 	movb   $0x0,0x11c(%eax)
c0041018:	c7 c0 57 2c 04 c0    	mov    $0xc0042c57,%eax
c004101e:	89 c2                	mov    %eax,%edx
c0041020:	c7 c0 60 a0 04 c0    	mov    $0xc004a060,%eax
c0041026:	66 89 90 20 01 00 00 	mov    %dx,0x120(%eax)
c004102d:	c7 c0 57 2c 04 c0    	mov    $0xc0042c57,%eax
c0041033:	c1 e8 10             	shr    $0x10,%eax
c0041036:	89 c2                	mov    %eax,%edx
c0041038:	c7 c0 60 a0 04 c0    	mov    $0xc004a060,%eax
c004103e:	66 89 90 26 01 00 00 	mov    %dx,0x126(%eax)
c0041045:	c7 c0 60 a0 04 c0    	mov    $0xc004a060,%eax
c004104b:	66 c7 80 22 01 00 00 	movw   $0x8,0x122(%eax)
c0041052:	08 00 
c0041054:	c7 c0 60 a0 04 c0    	mov    $0xc004a060,%eax
c004105a:	c6 80 25 01 00 00 8e 	movb   $0x8e,0x125(%eax)
c0041061:	c7 c0 60 a0 04 c0    	mov    $0xc004a060,%eax
c0041067:	c6 80 24 01 00 00 00 	movb   $0x0,0x124(%eax)
c004106e:	c7 c0 5e 2c 04 c0    	mov    $0xc0042c5e,%eax
c0041074:	89 c2                	mov    %eax,%edx
c0041076:	c7 c0 60 a0 04 c0    	mov    $0xc004a060,%eax
c004107c:	66 89 90 28 01 00 00 	mov    %dx,0x128(%eax)
c0041083:	c7 c0 5e 2c 04 c0    	mov    $0xc0042c5e,%eax
c0041089:	c1 e8 10             	shr    $0x10,%eax
c004108c:	89 c2                	mov    %eax,%edx
c004108e:	c7 c0 60 a0 04 c0    	mov    $0xc004a060,%eax
c0041094:	66 89 90 2e 01 00 00 	mov    %dx,0x12e(%eax)
c004109b:	c7 c0 60 a0 04 c0    	mov    $0xc004a060,%eax
c00410a1:	66 c7 80 2a 01 00 00 	movw   $0x8,0x12a(%eax)
c00410a8:	08 00 
c00410aa:	c7 c0 60 a0 04 c0    	mov    $0xc004a060,%eax
c00410b0:	c6 80 2d 01 00 00 8e 	movb   $0x8e,0x12d(%eax)
c00410b7:	c7 c0 60 a0 04 c0    	mov    $0xc004a060,%eax
c00410bd:	c6 80 2c 01 00 00 00 	movb   $0x0,0x12c(%eax)
c00410c4:	c7 c0 65 2c 04 c0    	mov    $0xc0042c65,%eax
c00410ca:	89 c2                	mov    %eax,%edx
c00410cc:	c7 c0 60 a0 04 c0    	mov    $0xc004a060,%eax
c00410d2:	66 89 90 30 01 00 00 	mov    %dx,0x130(%eax)
c00410d9:	c7 c0 65 2c 04 c0    	mov    $0xc0042c65,%eax
c00410df:	c1 e8 10             	shr    $0x10,%eax
c00410e2:	89 c2                	mov    %eax,%edx
c00410e4:	c7 c0 60 a0 04 c0    	mov    $0xc004a060,%eax
c00410ea:	66 89 90 36 01 00 00 	mov    %dx,0x136(%eax)
c00410f1:	c7 c0 60 a0 04 c0    	mov    $0xc004a060,%eax
c00410f7:	66 c7 80 32 01 00 00 	movw   $0x8,0x132(%eax)
c00410fe:	08 00 
c0041100:	c7 c0 60 a0 04 c0    	mov    $0xc004a060,%eax
c0041106:	c6 80 35 01 00 00 8e 	movb   $0x8e,0x135(%eax)
c004110d:	c7 c0 60 a0 04 c0    	mov    $0xc004a060,%eax
c0041113:	c6 80 34 01 00 00 00 	movb   $0x0,0x134(%eax)
c004111a:	c7 c0 6c 2c 04 c0    	mov    $0xc0042c6c,%eax
c0041120:	89 c2                	mov    %eax,%edx
c0041122:	c7 c0 60 a0 04 c0    	mov    $0xc004a060,%eax
c0041128:	66 89 90 38 01 00 00 	mov    %dx,0x138(%eax)
c004112f:	c7 c0 6c 2c 04 c0    	mov    $0xc0042c6c,%eax
c0041135:	c1 e8 10             	shr    $0x10,%eax
c0041138:	89 c2                	mov    %eax,%edx
c004113a:	c7 c0 60 a0 04 c0    	mov    $0xc004a060,%eax
c0041140:	66 89 90 3e 01 00 00 	mov    %dx,0x13e(%eax)
c0041147:	c7 c0 60 a0 04 c0    	mov    $0xc004a060,%eax
c004114d:	66 c7 80 3a 01 00 00 	movw   $0x8,0x13a(%eax)
c0041154:	08 00 
c0041156:	c7 c0 60 a0 04 c0    	mov    $0xc004a060,%eax
c004115c:	c6 80 3d 01 00 00 8e 	movb   $0x8e,0x13d(%eax)
c0041163:	c7 c0 60 a0 04 c0    	mov    $0xc004a060,%eax
c0041169:	c6 80 3c 01 00 00 00 	movb   $0x0,0x13c(%eax)
c0041170:	c7 c0 73 2c 04 c0    	mov    $0xc0042c73,%eax
c0041176:	89 c2                	mov    %eax,%edx
c0041178:	c7 c0 60 a0 04 c0    	mov    $0xc004a060,%eax
c004117e:	66 89 90 40 01 00 00 	mov    %dx,0x140(%eax)
c0041185:	c7 c0 73 2c 04 c0    	mov    $0xc0042c73,%eax
c004118b:	c1 e8 10             	shr    $0x10,%eax
c004118e:	89 c2                	mov    %eax,%edx
c0041190:	c7 c0 60 a0 04 c0    	mov    $0xc004a060,%eax
c0041196:	66 89 90 46 01 00 00 	mov    %dx,0x146(%eax)
c004119d:	c7 c0 60 a0 04 c0    	mov    $0xc004a060,%eax
c00411a3:	66 c7 80 42 01 00 00 	movw   $0x8,0x142(%eax)
c00411aa:	08 00 
c00411ac:	c7 c0 60 a0 04 c0    	mov    $0xc004a060,%eax
c00411b2:	c6 80 45 01 00 00 8e 	movb   $0x8e,0x145(%eax)
c00411b9:	c7 c0 60 a0 04 c0    	mov    $0xc004a060,%eax
c00411bf:	c6 80 44 01 00 00 00 	movb   $0x0,0x144(%eax)
c00411c6:	c7 c0 7a 2c 04 c0    	mov    $0xc0042c7a,%eax
c00411cc:	89 c2                	mov    %eax,%edx
c00411ce:	c7 c0 60 a0 04 c0    	mov    $0xc004a060,%eax
c00411d4:	66 89 90 48 01 00 00 	mov    %dx,0x148(%eax)
c00411db:	c7 c0 7a 2c 04 c0    	mov    $0xc0042c7a,%eax
c00411e1:	c1 e8 10             	shr    $0x10,%eax
c00411e4:	89 c2                	mov    %eax,%edx
c00411e6:	c7 c0 60 a0 04 c0    	mov    $0xc004a060,%eax
c00411ec:	66 89 90 4e 01 00 00 	mov    %dx,0x14e(%eax)
c00411f3:	c7 c0 60 a0 04 c0    	mov    $0xc004a060,%eax
c00411f9:	66 c7 80 4a 01 00 00 	movw   $0x8,0x14a(%eax)
c0041200:	08 00 
c0041202:	c7 c0 60 a0 04 c0    	mov    $0xc004a060,%eax
c0041208:	c6 80 4d 01 00 00 8e 	movb   $0x8e,0x14d(%eax)
c004120f:	c7 c0 60 a0 04 c0    	mov    $0xc004a060,%eax
c0041215:	c6 80 4c 01 00 00 00 	movb   $0x0,0x14c(%eax)
c004121c:	c7 c0 81 2c 04 c0    	mov    $0xc0042c81,%eax
c0041222:	89 c2                	mov    %eax,%edx
c0041224:	c7 c0 60 a0 04 c0    	mov    $0xc004a060,%eax
c004122a:	66 89 90 50 01 00 00 	mov    %dx,0x150(%eax)
c0041231:	c7 c0 81 2c 04 c0    	mov    $0xc0042c81,%eax
c0041237:	c1 e8 10             	shr    $0x10,%eax
c004123a:	89 c2                	mov    %eax,%edx
c004123c:	c7 c0 60 a0 04 c0    	mov    $0xc004a060,%eax
c0041242:	66 89 90 56 01 00 00 	mov    %dx,0x156(%eax)
c0041249:	c7 c0 60 a0 04 c0    	mov    $0xc004a060,%eax
c004124f:	66 c7 80 52 01 00 00 	movw   $0x8,0x152(%eax)
c0041256:	08 00 
c0041258:	c7 c0 60 a0 04 c0    	mov    $0xc004a060,%eax
c004125e:	c6 80 55 01 00 00 8e 	movb   $0x8e,0x155(%eax)
c0041265:	c7 c0 60 a0 04 c0    	mov    $0xc004a060,%eax
c004126b:	c6 80 54 01 00 00 00 	movb   $0x0,0x154(%eax)
c0041272:	c7 c0 88 2c 04 c0    	mov    $0xc0042c88,%eax
c0041278:	89 c2                	mov    %eax,%edx
c004127a:	c7 c0 60 a0 04 c0    	mov    $0xc004a060,%eax
c0041280:	66 89 90 58 01 00 00 	mov    %dx,0x158(%eax)
c0041287:	c7 c0 88 2c 04 c0    	mov    $0xc0042c88,%eax
c004128d:	c1 e8 10             	shr    $0x10,%eax
c0041290:	89 c2                	mov    %eax,%edx
c0041292:	c7 c0 60 a0 04 c0    	mov    $0xc004a060,%eax
c0041298:	66 89 90 5e 01 00 00 	mov    %dx,0x15e(%eax)
c004129f:	c7 c0 60 a0 04 c0    	mov    $0xc004a060,%eax
c00412a5:	66 c7 80 5a 01 00 00 	movw   $0x8,0x15a(%eax)
c00412ac:	08 00 
c00412ae:	c7 c0 60 a0 04 c0    	mov    $0xc004a060,%eax
c00412b4:	c6 80 5d 01 00 00 8e 	movb   $0x8e,0x15d(%eax)
c00412bb:	c7 c0 60 a0 04 c0    	mov    $0xc004a060,%eax
c00412c1:	c6 80 5c 01 00 00 00 	movb   $0x0,0x15c(%eax)
c00412c8:	c7 c0 8f 2c 04 c0    	mov    $0xc0042c8f,%eax
c00412ce:	89 c2                	mov    %eax,%edx
c00412d0:	c7 c0 60 a0 04 c0    	mov    $0xc004a060,%eax
c00412d6:	66 89 90 60 01 00 00 	mov    %dx,0x160(%eax)
c00412dd:	c7 c0 8f 2c 04 c0    	mov    $0xc0042c8f,%eax
c00412e3:	c1 e8 10             	shr    $0x10,%eax
c00412e6:	89 c2                	mov    %eax,%edx
c00412e8:	c7 c0 60 a0 04 c0    	mov    $0xc004a060,%eax
c00412ee:	66 89 90 66 01 00 00 	mov    %dx,0x166(%eax)
c00412f5:	c7 c0 60 a0 04 c0    	mov    $0xc004a060,%eax
c00412fb:	66 c7 80 62 01 00 00 	movw   $0x8,0x162(%eax)
c0041302:	08 00 
c0041304:	c7 c0 60 a0 04 c0    	mov    $0xc004a060,%eax
c004130a:	c6 80 65 01 00 00 8e 	movb   $0x8e,0x165(%eax)
c0041311:	c7 c0 60 a0 04 c0    	mov    $0xc004a060,%eax
c0041317:	c6 80 64 01 00 00 00 	movb   $0x0,0x164(%eax)
c004131e:	c7 c0 99 2c 04 c0    	mov    $0xc0042c99,%eax
c0041324:	89 c2                	mov    %eax,%edx
c0041326:	c7 c0 60 a0 04 c0    	mov    $0xc004a060,%eax
c004132c:	66 89 90 68 01 00 00 	mov    %dx,0x168(%eax)
c0041333:	c7 c0 99 2c 04 c0    	mov    $0xc0042c99,%eax
c0041339:	c1 e8 10             	shr    $0x10,%eax
c004133c:	89 c2                	mov    %eax,%edx
c004133e:	c7 c0 60 a0 04 c0    	mov    $0xc004a060,%eax
c0041344:	66 89 90 6e 01 00 00 	mov    %dx,0x16e(%eax)
c004134b:	c7 c0 60 a0 04 c0    	mov    $0xc004a060,%eax
c0041351:	66 c7 80 6a 01 00 00 	movw   $0x8,0x16a(%eax)
c0041358:	08 00 
c004135a:	c7 c0 60 a0 04 c0    	mov    $0xc004a060,%eax
c0041360:	c6 80 6d 01 00 00 8e 	movb   $0x8e,0x16d(%eax)
c0041367:	c7 c0 60 a0 04 c0    	mov    $0xc004a060,%eax
c004136d:	c6 80 6c 01 00 00 00 	movb   $0x0,0x16c(%eax)
c0041374:	c7 c0 a3 2c 04 c0    	mov    $0xc0042ca3,%eax
c004137a:	89 c2                	mov    %eax,%edx
c004137c:	c7 c0 60 a0 04 c0    	mov    $0xc004a060,%eax
c0041382:	66 89 90 70 01 00 00 	mov    %dx,0x170(%eax)
c0041389:	c7 c0 a3 2c 04 c0    	mov    $0xc0042ca3,%eax
c004138f:	c1 e8 10             	shr    $0x10,%eax
c0041392:	89 c2                	mov    %eax,%edx
c0041394:	c7 c0 60 a0 04 c0    	mov    $0xc004a060,%eax
c004139a:	66 89 90 76 01 00 00 	mov    %dx,0x176(%eax)
c00413a1:	c7 c0 60 a0 04 c0    	mov    $0xc004a060,%eax
c00413a7:	66 c7 80 72 01 00 00 	movw   $0x8,0x172(%eax)
c00413ae:	08 00 
c00413b0:	c7 c0 60 a0 04 c0    	mov    $0xc004a060,%eax
c00413b6:	c6 80 75 01 00 00 8e 	movb   $0x8e,0x175(%eax)
c00413bd:	c7 c0 60 a0 04 c0    	mov    $0xc004a060,%eax
c00413c3:	c6 80 74 01 00 00 00 	movb   $0x0,0x174(%eax)
c00413ca:	c7 c0 ad 2c 04 c0    	mov    $0xc0042cad,%eax
c00413d0:	89 c2                	mov    %eax,%edx
c00413d2:	c7 c0 60 a0 04 c0    	mov    $0xc004a060,%eax
c00413d8:	66 89 90 78 01 00 00 	mov    %dx,0x178(%eax)
c00413df:	c7 c0 ad 2c 04 c0    	mov    $0xc0042cad,%eax
c00413e5:	c1 e8 10             	shr    $0x10,%eax
c00413e8:	89 c2                	mov    %eax,%edx
c00413ea:	c7 c0 60 a0 04 c0    	mov    $0xc004a060,%eax
c00413f0:	66 89 90 7e 01 00 00 	mov    %dx,0x17e(%eax)
c00413f7:	c7 c0 60 a0 04 c0    	mov    $0xc004a060,%eax
c00413fd:	66 c7 80 7a 01 00 00 	movw   $0x8,0x17a(%eax)
c0041404:	08 00 
c0041406:	c7 c0 60 a0 04 c0    	mov    $0xc004a060,%eax
c004140c:	c6 80 7d 01 00 00 8e 	movb   $0x8e,0x17d(%eax)
c0041413:	c7 c0 60 a0 04 c0    	mov    $0xc004a060,%eax
c0041419:	c6 80 7c 01 00 00 00 	movb   $0x0,0x17c(%eax)
c0041420:	e8 2f 00 00 00       	call   c0041454 <init_8259A>
c0041425:	90                   	nop
c0041426:	8b 5d fc             	mov    -0x4(%ebp),%ebx
c0041429:	c9                   	leave  
c004142a:	c3                   	ret    

c004142b <register_interrupt_handler>:
c004142b:	55                   	push   %ebp
c004142c:	89 e5                	mov    %esp,%ebp
c004142e:	83 ec 04             	sub    $0x4,%esp
c0041431:	e8 81 18 00 00       	call   c0042cb7 <__x86.get_pc_thunk.ax>
c0041436:	05 9e 22 00 00       	add    $0x229e,%eax
c004143b:	8b 55 08             	mov    0x8(%ebp),%edx
c004143e:	88 55 fc             	mov    %dl,-0x4(%ebp)
c0041441:	0f b6 55 fc          	movzbl -0x4(%ebp),%edx
c0041445:	c7 c0 60 a8 04 c0    	mov    $0xc004a860,%eax
c004144b:	8b 4d 0c             	mov    0xc(%ebp),%ecx
c004144e:	89 0c 90             	mov    %ecx,(%eax,%edx,4)
c0041451:	90                   	nop
c0041452:	c9                   	leave  
c0041453:	c3                   	ret    

c0041454 <init_8259A>:
c0041454:	55                   	push   %ebp
c0041455:	89 e5                	mov    %esp,%ebp
c0041457:	53                   	push   %ebx
c0041458:	83 ec 04             	sub    $0x4,%esp
c004145b:	e8 5b 18 00 00       	call   c0042cbb <__x86.get_pc_thunk.bx>
c0041460:	81 c3 74 22 00 00    	add    $0x2274,%ebx
c0041466:	83 ec 08             	sub    $0x8,%esp
c0041469:	6a 11                	push   $0x11
c004146b:	6a 20                	push   $0x20
c004146d:	e8 97 13 00 00       	call   c0042809 <outb>
c0041472:	83 c4 10             	add    $0x10,%esp
c0041475:	83 ec 08             	sub    $0x8,%esp
c0041478:	6a 11                	push   $0x11
c004147a:	68 a0 00 00 00       	push   $0xa0
c004147f:	e8 85 13 00 00       	call   c0042809 <outb>
c0041484:	83 c4 10             	add    $0x10,%esp
c0041487:	83 ec 08             	sub    $0x8,%esp
c004148a:	6a 20                	push   $0x20
c004148c:	6a 21                	push   $0x21
c004148e:	e8 76 13 00 00       	call   c0042809 <outb>
c0041493:	83 c4 10             	add    $0x10,%esp
c0041496:	83 ec 08             	sub    $0x8,%esp
c0041499:	6a 28                	push   $0x28
c004149b:	68 a1 00 00 00       	push   $0xa1
c00414a0:	e8 64 13 00 00       	call   c0042809 <outb>
c00414a5:	83 c4 10             	add    $0x10,%esp
c00414a8:	83 ec 08             	sub    $0x8,%esp
c00414ab:	6a 04                	push   $0x4
c00414ad:	6a 21                	push   $0x21
c00414af:	e8 55 13 00 00       	call   c0042809 <outb>
c00414b4:	83 c4 10             	add    $0x10,%esp
c00414b7:	83 ec 08             	sub    $0x8,%esp
c00414ba:	6a 02                	push   $0x2
c00414bc:	68 a1 00 00 00       	push   $0xa1
c00414c1:	e8 43 13 00 00       	call   c0042809 <outb>
c00414c6:	83 c4 10             	add    $0x10,%esp
c00414c9:	83 ec 08             	sub    $0x8,%esp
c00414cc:	6a 01                	push   $0x1
c00414ce:	6a 21                	push   $0x21
c00414d0:	e8 34 13 00 00       	call   c0042809 <outb>
c00414d5:	83 c4 10             	add    $0x10,%esp
c00414d8:	83 ec 08             	sub    $0x8,%esp
c00414db:	6a 01                	push   $0x1
c00414dd:	68 a1 00 00 00       	push   $0xa1
c00414e2:	e8 22 13 00 00       	call   c0042809 <outb>
c00414e7:	83 c4 10             	add    $0x10,%esp
c00414ea:	83 ec 08             	sub    $0x8,%esp
c00414ed:	6a 00                	push   $0x0
c00414ef:	6a 21                	push   $0x21
c00414f1:	e8 13 13 00 00       	call   c0042809 <outb>
c00414f6:	83 c4 10             	add    $0x10,%esp
c00414f9:	83 ec 08             	sub    $0x8,%esp
c00414fc:	6a 00                	push   $0x0
c00414fe:	68 a1 00 00 00       	push   $0xa1
c0041503:	e8 01 13 00 00       	call   c0042809 <outb>
c0041508:	83 c4 10             	add    $0x10,%esp
c004150b:	83 ec 0c             	sub    $0xc,%esp
c004150e:	8d 83 94 fd ff ff    	lea    -0x26c(%ebx),%eax
c0041514:	50                   	push   %eax
c0041515:	e8 73 08 00 00       	call   c0041d8d <printk>
c004151a:	83 c4 10             	add    $0x10,%esp
c004151d:	90                   	nop
c004151e:	8b 5d fc             	mov    -0x4(%ebp),%ebx
c0041521:	c9                   	leave  
c0041522:	c3                   	ret    

c0041523 <intr_test>:
c0041523:	55                   	push   %ebp
c0041524:	89 e5                	mov    %esp,%ebp
c0041526:	53                   	push   %ebx
c0041527:	83 ec 04             	sub    $0x4,%esp
c004152a:	e8 88 17 00 00       	call   c0042cb7 <__x86.get_pc_thunk.ax>
c004152f:	05 a5 21 00 00       	add    $0x21a5,%eax
c0041534:	83 ec 0c             	sub    $0xc,%esp
c0041537:	8d 90 b4 fd ff ff    	lea    -0x24c(%eax),%edx
c004153d:	52                   	push   %edx
c004153e:	89 c3                	mov    %eax,%ebx
c0041540:	e8 48 08 00 00       	call   c0041d8d <printk>
c0041545:	83 c4 10             	add    $0x10,%esp
c0041548:	90                   	nop
c0041549:	8b 5d fc             	mov    -0x4(%ebp),%ebx
c004154c:	c9                   	leave  
c004154d:	c3                   	ret    

c004154e <keyboard_handler>:
c004154e:	55                   	push   %ebp
c004154f:	89 e5                	mov    %esp,%ebp
c0041551:	53                   	push   %ebx
c0041552:	83 ec 14             	sub    $0x14,%esp
c0041555:	e8 61 17 00 00       	call   c0042cbb <__x86.get_pc_thunk.bx>
c004155a:	81 c3 7a 21 00 00    	add    $0x217a,%ebx
c0041560:	83 ec 0c             	sub    $0xc,%esp
c0041563:	6a 64                	push   $0x64
c0041565:	e8 c8 12 00 00       	call   c0042832 <inb>
c004156a:	83 c4 10             	add    $0x10,%esp
c004156d:	88 45 f6             	mov    %al,-0xa(%ebp)
c0041570:	0f b6 45 f6          	movzbl -0xa(%ebp),%eax
c0041574:	83 e0 01             	and    $0x1,%eax
c0041577:	85 c0                	test   %eax,%eax
c0041579:	74 10                	je     c004158b <keyboard_handler+0x3d>
c004157b:	83 ec 0c             	sub    $0xc,%esp
c004157e:	6a 60                	push   $0x60
c0041580:	e8 ad 12 00 00       	call   c0042832 <inb>
c0041585:	83 c4 10             	add    $0x10,%esp
c0041588:	88 45 f7             	mov    %al,-0x9(%ebp)
c004158b:	0f b6 45 f7          	movzbl -0x9(%ebp),%eax
c004158f:	c7 c2 60 9f 04 c0    	mov    $0xc0049f60,%edx
c0041595:	0f b6 04 02          	movzbl (%edx,%eax,1),%eax
c0041599:	0f b6 c0             	movzbl %al,%eax
c004159c:	50                   	push   %eax
c004159d:	8d 83 c4 fd ff ff    	lea    -0x23c(%ebx),%eax
c00415a3:	50                   	push   %eax
c00415a4:	6a 03                	push   $0x3
c00415a6:	6a 04                	push   $0x4
c00415a8:	e8 3a 08 00 00       	call   c0041de7 <printk_color>
c00415ad:	83 c4 10             	add    $0x10,%esp
c00415b0:	8b 5d fc             	mov    -0x4(%ebp),%ebx
c00415b3:	c9                   	leave  
c00415b4:	c3                   	ret    

c00415b5 <init_keyboard>:
c00415b5:	55                   	push   %ebp
c00415b6:	89 e5                	mov    %esp,%ebp
c00415b8:	53                   	push   %ebx
c00415b9:	83 ec 04             	sub    $0x4,%esp
c00415bc:	e8 fa 16 00 00       	call   c0042cbb <__x86.get_pc_thunk.bx>
c00415c1:	81 c3 13 21 00 00    	add    $0x2113,%ebx
c00415c7:	83 ec 08             	sub    $0x8,%esp
c00415ca:	8d 83 7a de ff ff    	lea    -0x2186(%ebx),%eax
c00415d0:	50                   	push   %eax
c00415d1:	6a 21                	push   $0x21
c00415d3:	e8 53 fe ff ff       	call   c004142b <register_interrupt_handler>
c00415d8:	83 c4 10             	add    $0x10,%esp
c00415db:	83 ec 0c             	sub    $0xc,%esp
c00415de:	c7 c0 60 9f 04 c0    	mov    $0xc0049f60,%eax
c00415e4:	50                   	push   %eax
c00415e5:	e8 09 00 00 00       	call   c00415f3 <keymap_setup>
c00415ea:	83 c4 10             	add    $0x10,%esp
c00415ed:	90                   	nop
c00415ee:	8b 5d fc             	mov    -0x4(%ebp),%ebx
c00415f1:	c9                   	leave  
c00415f2:	c3                   	ret    

c00415f3 <keymap_setup>:
c00415f3:	55                   	push   %ebp
c00415f4:	89 e5                	mov    %esp,%ebp
c00415f6:	e8 bc 16 00 00       	call   c0042cb7 <__x86.get_pc_thunk.ax>
c00415fb:	05 d9 20 00 00       	add    $0x20d9,%eax
c0041600:	8b 45 08             	mov    0x8(%ebp),%eax
c0041603:	83 c0 1e             	add    $0x1e,%eax
c0041606:	c6 00 61             	movb   $0x61,(%eax)
c0041609:	8b 45 08             	mov    0x8(%ebp),%eax
c004160c:	83 c0 30             	add    $0x30,%eax
c004160f:	c6 00 62             	movb   $0x62,(%eax)
c0041612:	8b 45 08             	mov    0x8(%ebp),%eax
c0041615:	83 c0 2e             	add    $0x2e,%eax
c0041618:	c6 00 63             	movb   $0x63,(%eax)
c004161b:	8b 45 08             	mov    0x8(%ebp),%eax
c004161e:	83 c0 20             	add    $0x20,%eax
c0041621:	c6 00 64             	movb   $0x64,(%eax)
c0041624:	8b 45 08             	mov    0x8(%ebp),%eax
c0041627:	83 c0 12             	add    $0x12,%eax
c004162a:	c6 00 65             	movb   $0x65,(%eax)
c004162d:	8b 45 08             	mov    0x8(%ebp),%eax
c0041630:	83 c0 21             	add    $0x21,%eax
c0041633:	c6 00 66             	movb   $0x66,(%eax)
c0041636:	8b 45 08             	mov    0x8(%ebp),%eax
c0041639:	83 c0 22             	add    $0x22,%eax
c004163c:	c6 00 67             	movb   $0x67,(%eax)
c004163f:	8b 45 08             	mov    0x8(%ebp),%eax
c0041642:	83 c0 23             	add    $0x23,%eax
c0041645:	c6 00 68             	movb   $0x68,(%eax)
c0041648:	8b 45 08             	mov    0x8(%ebp),%eax
c004164b:	83 c0 17             	add    $0x17,%eax
c004164e:	c6 00 69             	movb   $0x69,(%eax)
c0041651:	8b 45 08             	mov    0x8(%ebp),%eax
c0041654:	83 c0 24             	add    $0x24,%eax
c0041657:	c6 00 6a             	movb   $0x6a,(%eax)
c004165a:	8b 45 08             	mov    0x8(%ebp),%eax
c004165d:	83 c0 25             	add    $0x25,%eax
c0041660:	c6 00 6b             	movb   $0x6b,(%eax)
c0041663:	8b 45 08             	mov    0x8(%ebp),%eax
c0041666:	83 c0 26             	add    $0x26,%eax
c0041669:	c6 00 6c             	movb   $0x6c,(%eax)
c004166c:	8b 45 08             	mov    0x8(%ebp),%eax
c004166f:	83 c0 32             	add    $0x32,%eax
c0041672:	c6 00 6d             	movb   $0x6d,(%eax)
c0041675:	8b 45 08             	mov    0x8(%ebp),%eax
c0041678:	83 c0 31             	add    $0x31,%eax
c004167b:	c6 00 6e             	movb   $0x6e,(%eax)
c004167e:	8b 45 08             	mov    0x8(%ebp),%eax
c0041681:	83 c0 18             	add    $0x18,%eax
c0041684:	c6 00 6f             	movb   $0x6f,(%eax)
c0041687:	8b 45 08             	mov    0x8(%ebp),%eax
c004168a:	83 c0 19             	add    $0x19,%eax
c004168d:	c6 00 70             	movb   $0x70,(%eax)
c0041690:	8b 45 08             	mov    0x8(%ebp),%eax
c0041693:	83 c0 10             	add    $0x10,%eax
c0041696:	c6 00 71             	movb   $0x71,(%eax)
c0041699:	8b 45 08             	mov    0x8(%ebp),%eax
c004169c:	83 c0 13             	add    $0x13,%eax
c004169f:	c6 00 72             	movb   $0x72,(%eax)
c00416a2:	8b 45 08             	mov    0x8(%ebp),%eax
c00416a5:	83 c0 1f             	add    $0x1f,%eax
c00416a8:	c6 00 73             	movb   $0x73,(%eax)
c00416ab:	8b 45 08             	mov    0x8(%ebp),%eax
c00416ae:	83 c0 14             	add    $0x14,%eax
c00416b1:	c6 00 74             	movb   $0x74,(%eax)
c00416b4:	8b 45 08             	mov    0x8(%ebp),%eax
c00416b7:	83 c0 16             	add    $0x16,%eax
c00416ba:	c6 00 75             	movb   $0x75,(%eax)
c00416bd:	8b 45 08             	mov    0x8(%ebp),%eax
c00416c0:	83 c0 2f             	add    $0x2f,%eax
c00416c3:	c6 00 76             	movb   $0x76,(%eax)
c00416c6:	8b 45 08             	mov    0x8(%ebp),%eax
c00416c9:	83 c0 11             	add    $0x11,%eax
c00416cc:	c6 00 77             	movb   $0x77,(%eax)
c00416cf:	8b 45 08             	mov    0x8(%ebp),%eax
c00416d2:	83 c0 2d             	add    $0x2d,%eax
c00416d5:	c6 00 78             	movb   $0x78,(%eax)
c00416d8:	8b 45 08             	mov    0x8(%ebp),%eax
c00416db:	83 c0 15             	add    $0x15,%eax
c00416de:	c6 00 79             	movb   $0x79,(%eax)
c00416e1:	8b 45 08             	mov    0x8(%ebp),%eax
c00416e4:	83 c0 2c             	add    $0x2c,%eax
c00416e7:	c6 00 7a             	movb   $0x7a,(%eax)
c00416ea:	8b 45 08             	mov    0x8(%ebp),%eax
c00416ed:	83 c0 0b             	add    $0xb,%eax
c00416f0:	c6 00 30             	movb   $0x30,(%eax)
c00416f3:	8b 45 08             	mov    0x8(%ebp),%eax
c00416f6:	83 c0 02             	add    $0x2,%eax
c00416f9:	c6 00 31             	movb   $0x31,(%eax)
c00416fc:	8b 45 08             	mov    0x8(%ebp),%eax
c00416ff:	83 c0 03             	add    $0x3,%eax
c0041702:	c6 00 32             	movb   $0x32,(%eax)
c0041705:	8b 45 08             	mov    0x8(%ebp),%eax
c0041708:	83 c0 04             	add    $0x4,%eax
c004170b:	c6 00 33             	movb   $0x33,(%eax)
c004170e:	8b 45 08             	mov    0x8(%ebp),%eax
c0041711:	83 c0 05             	add    $0x5,%eax
c0041714:	c6 00 34             	movb   $0x34,(%eax)
c0041717:	8b 45 08             	mov    0x8(%ebp),%eax
c004171a:	83 c0 06             	add    $0x6,%eax
c004171d:	c6 00 35             	movb   $0x35,(%eax)
c0041720:	8b 45 08             	mov    0x8(%ebp),%eax
c0041723:	83 c0 07             	add    $0x7,%eax
c0041726:	c6 00 36             	movb   $0x36,(%eax)
c0041729:	8b 45 08             	mov    0x8(%ebp),%eax
c004172c:	83 c0 08             	add    $0x8,%eax
c004172f:	c6 00 37             	movb   $0x37,(%eax)
c0041732:	8b 45 08             	mov    0x8(%ebp),%eax
c0041735:	83 c0 09             	add    $0x9,%eax
c0041738:	c6 00 38             	movb   $0x38,(%eax)
c004173b:	8b 45 08             	mov    0x8(%ebp),%eax
c004173e:	83 c0 0a             	add    $0xa,%eax
c0041741:	c6 00 39             	movb   $0x39,(%eax)
c0041744:	8b 45 08             	mov    0x8(%ebp),%eax
c0041747:	83 c0 27             	add    $0x27,%eax
c004174a:	c6 00 3b             	movb   $0x3b,(%eax)
c004174d:	8b 45 08             	mov    0x8(%ebp),%eax
c0041750:	83 c0 28             	add    $0x28,%eax
c0041753:	c6 00 27             	movb   $0x27,(%eax)
c0041756:	8b 45 08             	mov    0x8(%ebp),%eax
c0041759:	83 c0 33             	add    $0x33,%eax
c004175c:	c6 00 2c             	movb   $0x2c,(%eax)
c004175f:	8b 45 08             	mov    0x8(%ebp),%eax
c0041762:	83 c0 34             	add    $0x34,%eax
c0041765:	c6 00 2e             	movb   $0x2e,(%eax)
c0041768:	8b 45 08             	mov    0x8(%ebp),%eax
c004176b:	83 c0 27             	add    $0x27,%eax
c004176e:	c6 00 3b             	movb   $0x3b,(%eax)
c0041771:	8b 45 08             	mov    0x8(%ebp),%eax
c0041774:	83 c0 1c             	add    $0x1c,%eax
c0041777:	c6 00 0a             	movb   $0xa,(%eax)
c004177a:	8b 45 08             	mov    0x8(%ebp),%eax
c004177d:	83 c0 0d             	add    $0xd,%eax
c0041780:	c6 00 3d             	movb   $0x3d,(%eax)
c0041783:	8b 45 08             	mov    0x8(%ebp),%eax
c0041786:	83 c0 0c             	add    $0xc,%eax
c0041789:	c6 00 2d             	movb   $0x2d,(%eax)
c004178c:	8b 45 08             	mov    0x8(%ebp),%eax
c004178f:	83 c0 2b             	add    $0x2b,%eax
c0041792:	c6 00 5c             	movb   $0x5c,(%eax)
c0041795:	8b 45 08             	mov    0x8(%ebp),%eax
c0041798:	83 c0 35             	add    $0x35,%eax
c004179b:	c6 00 2f             	movb   $0x2f,(%eax)
c004179e:	8b 45 08             	mov    0x8(%ebp),%eax
c00417a1:	83 c0 1a             	add    $0x1a,%eax
c00417a4:	c6 00 5b             	movb   $0x5b,(%eax)
c00417a7:	8b 45 08             	mov    0x8(%ebp),%eax
c00417aa:	83 c0 1b             	add    $0x1b,%eax
c00417ad:	c6 00 5d             	movb   $0x5d,(%eax)
c00417b0:	8b 45 08             	mov    0x8(%ebp),%eax
c00417b3:	83 c0 29             	add    $0x29,%eax
c00417b6:	c6 00 7e             	movb   $0x7e,(%eax)
c00417b9:	8b 45 08             	mov    0x8(%ebp),%eax
c00417bc:	83 c0 0f             	add    $0xf,%eax
c00417bf:	c6 00 09             	movb   $0x9,(%eax)
c00417c2:	8b 45 08             	mov    0x8(%ebp),%eax
c00417c5:	83 c0 39             	add    $0x39,%eax
c00417c8:	c6 00 20             	movb   $0x20,(%eax)
c00417cb:	8b 45 08             	mov    0x8(%ebp),%eax
c00417ce:	83 c0 0e             	add    $0xe,%eax
c00417d1:	c6 00 08             	movb   $0x8,(%eax)
c00417d4:	90                   	nop
c00417d5:	5d                   	pop    %ebp
c00417d6:	c3                   	ret    

c00417d7 <set_cursor>:
c00417d7:	55                   	push   %ebp
c00417d8:	89 e5                	mov    %esp,%ebp
c00417da:	53                   	push   %ebx
c00417db:	83 ec 14             	sub    $0x14,%esp
c00417de:	e8 d8 14 00 00       	call   c0042cbb <__x86.get_pc_thunk.bx>
c00417e3:	81 c3 f1 1e 00 00    	add    $0x1ef1,%ebx
c00417e9:	66 c7 45 f6 00 00    	movw   $0x0,-0xa(%ebp)
c00417ef:	83 ec 08             	sub    $0x8,%esp
c00417f2:	6a 0f                	push   $0xf
c00417f4:	68 d4 03 00 00       	push   $0x3d4
c00417f9:	e8 0b 10 00 00       	call   c0042809 <outb>
c00417fe:	83 c4 10             	add    $0x10,%esp
c0041801:	0f b7 45 f6          	movzwl -0xa(%ebp),%eax
c0041805:	0f b6 c0             	movzbl %al,%eax
c0041808:	83 ec 08             	sub    $0x8,%esp
c004180b:	50                   	push   %eax
c004180c:	68 d5 03 00 00       	push   $0x3d5
c0041811:	e8 f3 0f 00 00       	call   c0042809 <outb>
c0041816:	83 c4 10             	add    $0x10,%esp
c0041819:	83 ec 08             	sub    $0x8,%esp
c004181c:	68 fe 00 00 00       	push   $0xfe
c0041821:	68 d4 03 00 00       	push   $0x3d4
c0041826:	e8 de 0f 00 00       	call   c0042809 <outb>
c004182b:	83 c4 10             	add    $0x10,%esp
c004182e:	0f b7 45 f6          	movzwl -0xa(%ebp),%eax
c0041832:	66 c1 e8 08          	shr    $0x8,%ax
c0041836:	0f b6 c0             	movzbl %al,%eax
c0041839:	83 ec 08             	sub    $0x8,%esp
c004183c:	50                   	push   %eax
c004183d:	68 d5 03 00 00       	push   $0x3d5
c0041842:	e8 c2 0f 00 00       	call   c0042809 <outb>
c0041847:	83 c4 10             	add    $0x10,%esp
c004184a:	90                   	nop
c004184b:	8b 5d fc             	mov    -0x4(%ebp),%ebx
c004184e:	c9                   	leave  
c004184f:	c3                   	ret    

c0041850 <move_cursor>:
c0041850:	55                   	push   %ebp
c0041851:	89 e5                	mov    %esp,%ebp
c0041853:	53                   	push   %ebx
c0041854:	83 ec 14             	sub    $0x14,%esp
c0041857:	e8 5f 14 00 00       	call   c0042cbb <__x86.get_pc_thunk.bx>
c004185c:	81 c3 78 1e 00 00    	add    $0x1e78,%ebx
c0041862:	c7 c0 e1 76 04 c0    	mov    $0xc00476e1,%eax
c0041868:	0f b6 00             	movzbl (%eax),%eax
c004186b:	0f b6 d0             	movzbl %al,%edx
c004186e:	89 d0                	mov    %edx,%eax
c0041870:	c1 e0 03             	shl    $0x3,%eax
c0041873:	01 d0                	add    %edx,%eax
c0041875:	8d 14 c5 00 00 00 00 	lea    0x0(,%eax,8),%edx
c004187c:	01 d0                	add    %edx,%eax
c004187e:	66 89 45 f6          	mov    %ax,-0xa(%ebp)
c0041882:	83 ec 08             	sub    $0x8,%esp
c0041885:	6a 0e                	push   $0xe
c0041887:	68 d4 03 00 00       	push   $0x3d4
c004188c:	e8 78 0f 00 00       	call   c0042809 <outb>
c0041891:	83 c4 10             	add    $0x10,%esp
c0041894:	0f b7 45 f6          	movzwl -0xa(%ebp),%eax
c0041898:	66 c1 e8 08          	shr    $0x8,%ax
c004189c:	0f b6 c0             	movzbl %al,%eax
c004189f:	83 ec 08             	sub    $0x8,%esp
c00418a2:	50                   	push   %eax
c00418a3:	68 d5 03 00 00       	push   $0x3d5
c00418a8:	e8 5c 0f 00 00       	call   c0042809 <outb>
c00418ad:	83 c4 10             	add    $0x10,%esp
c00418b0:	83 ec 08             	sub    $0x8,%esp
c00418b3:	6a 0f                	push   $0xf
c00418b5:	68 d4 03 00 00       	push   $0x3d4
c00418ba:	e8 4a 0f 00 00       	call   c0042809 <outb>
c00418bf:	83 c4 10             	add    $0x10,%esp
c00418c2:	0f b7 45 f6          	movzwl -0xa(%ebp),%eax
c00418c6:	0f b6 c0             	movzbl %al,%eax
c00418c9:	83 ec 08             	sub    $0x8,%esp
c00418cc:	50                   	push   %eax
c00418cd:	68 d5 03 00 00       	push   $0x3d5
c00418d2:	e8 32 0f 00 00       	call   c0042809 <outb>
c00418d7:	83 c4 10             	add    $0x10,%esp
c00418da:	90                   	nop
c00418db:	8b 5d fc             	mov    -0x4(%ebp),%ebx
c00418de:	c9                   	leave  
c00418df:	c3                   	ret    

c00418e0 <console_test>:
c00418e0:	55                   	push   %ebp
c00418e1:	89 e5                	mov    %esp,%ebp
c00418e3:	e8 cf 13 00 00       	call   c0042cb7 <__x86.get_pc_thunk.ax>
c00418e8:	05 ec 1d 00 00       	add    $0x1dec,%eax
c00418ed:	90                   	nop
c00418ee:	5d                   	pop    %ebp
c00418ef:	c3                   	ret    

c00418f0 <swap>:
c00418f0:	55                   	push   %ebp
c00418f1:	89 e5                	mov    %esp,%ebp
c00418f3:	83 ec 10             	sub    $0x10,%esp
c00418f6:	e8 bc 13 00 00       	call   c0042cb7 <__x86.get_pc_thunk.ax>
c00418fb:	05 d9 1d 00 00       	add    $0x1dd9,%eax
c0041900:	8b 45 08             	mov    0x8(%ebp),%eax
c0041903:	0f b6 00             	movzbl (%eax),%eax
c0041906:	88 45 ff             	mov    %al,-0x1(%ebp)
c0041909:	8b 45 0c             	mov    0xc(%ebp),%eax
c004190c:	0f b6 10             	movzbl (%eax),%edx
c004190f:	8b 45 08             	mov    0x8(%ebp),%eax
c0041912:	88 10                	mov    %dl,(%eax)
c0041914:	8b 45 0c             	mov    0xc(%ebp),%eax
c0041917:	0f b6 55 ff          	movzbl -0x1(%ebp),%edx
c004191b:	88 10                	mov    %dl,(%eax)
c004191d:	90                   	nop
c004191e:	c9                   	leave  
c004191f:	c3                   	ret    

c0041920 <reverse>:
c0041920:	55                   	push   %ebp
c0041921:	89 e5                	mov    %esp,%ebp
c0041923:	83 ec 10             	sub    $0x10,%esp
c0041926:	e8 8c 13 00 00       	call   c0042cb7 <__x86.get_pc_thunk.ax>
c004192b:	05 a9 1d 00 00       	add    $0x1da9,%eax
c0041930:	c7 45 fc 00 00 00 00 	movl   $0x0,-0x4(%ebp)
c0041937:	8b 45 0c             	mov    0xc(%ebp),%eax
c004193a:	83 e8 01             	sub    $0x1,%eax
c004193d:	89 45 f8             	mov    %eax,-0x8(%ebp)
c0041940:	eb 22                	jmp    c0041964 <reverse+0x44>
c0041942:	8b 55 08             	mov    0x8(%ebp),%edx
c0041945:	8b 45 f8             	mov    -0x8(%ebp),%eax
c0041948:	01 c2                	add    %eax,%edx
c004194a:	8b 4d 08             	mov    0x8(%ebp),%ecx
c004194d:	8b 45 fc             	mov    -0x4(%ebp),%eax
c0041950:	01 c8                	add    %ecx,%eax
c0041952:	52                   	push   %edx
c0041953:	50                   	push   %eax
c0041954:	e8 97 ff ff ff       	call   c00418f0 <swap>
c0041959:	83 c4 08             	add    $0x8,%esp
c004195c:	83 45 fc 01          	addl   $0x1,-0x4(%ebp)
c0041960:	83 6d f8 01          	subl   $0x1,-0x8(%ebp)
c0041964:	8b 45 fc             	mov    -0x4(%ebp),%eax
c0041967:	3b 45 f8             	cmp    -0x8(%ebp),%eax
c004196a:	72 d6                	jb     c0041942 <reverse+0x22>
c004196c:	90                   	nop
c004196d:	c9                   	leave  
c004196e:	c3                   	ret    

c004196f <console_clear>:
c004196f:	55                   	push   %ebp
c0041970:	89 e5                	mov    %esp,%ebp
c0041972:	83 ec 18             	sub    $0x18,%esp
c0041975:	e8 3d 13 00 00       	call   c0042cb7 <__x86.get_pc_thunk.ax>
c004197a:	05 5a 1d 00 00       	add    $0x1d5a,%eax
c004197f:	c6 45 f5 0f          	movb   $0xf,-0xb(%ebp)
c0041983:	0f b6 55 f5          	movzbl -0xb(%ebp),%edx
c0041987:	c1 e2 08             	shl    $0x8,%edx
c004198a:	83 ca 20             	or     $0x20,%edx
c004198d:	66 89 55 f2          	mov    %dx,-0xe(%ebp)
c0041991:	66 c7 45 f6 00 00    	movw   $0x0,-0xa(%ebp)
c0041997:	eb 20                	jmp    c00419b9 <console_clear+0x4a>
c0041999:	8b 90 fc ff ff ff    	mov    -0x4(%eax),%edx
c004199f:	0f b7 4d f6          	movzwl -0xa(%ebp),%ecx
c00419a3:	01 c9                	add    %ecx,%ecx
c00419a5:	01 d1                	add    %edx,%ecx
c00419a7:	0f b7 55 f2          	movzwl -0xe(%ebp),%edx
c00419ab:	66 89 11             	mov    %dx,(%ecx)
c00419ae:	0f b7 55 f6          	movzwl -0xa(%ebp),%edx
c00419b2:	83 c2 01             	add    $0x1,%edx
c00419b5:	66 89 55 f6          	mov    %dx,-0xa(%ebp)
c00419b9:	66 81 7d f6 bf 08    	cmpw   $0x8bf,-0xa(%ebp)
c00419bf:	76 d8                	jbe    c0041999 <console_clear+0x2a>
c00419c1:	c7 c2 e0 76 04 c0    	mov    $0xc00476e0,%edx
c00419c7:	c6 02 00             	movb   $0x0,(%edx)
c00419ca:	c7 c0 e1 76 04 c0    	mov    $0xc00476e1,%eax
c00419d0:	c6 00 00             	movb   $0x0,(%eax)
c00419d3:	e8 78 fe ff ff       	call   c0041850 <move_cursor>
c00419d8:	90                   	nop
c00419d9:	c9                   	leave  
c00419da:	c3                   	ret    

c00419db <console_write>:
c00419db:	55                   	push   %ebp
c00419dc:	89 e5                	mov    %esp,%ebp
c00419de:	83 ec 08             	sub    $0x8,%esp
c00419e1:	e8 d1 12 00 00       	call   c0042cb7 <__x86.get_pc_thunk.ax>
c00419e6:	05 ee 1c 00 00       	add    $0x1cee,%eax
c00419eb:	eb 1f                	jmp    c0041a0c <console_write+0x31>
c00419ed:	8b 45 08             	mov    0x8(%ebp),%eax
c00419f0:	8d 50 01             	lea    0x1(%eax),%edx
c00419f3:	89 55 08             	mov    %edx,0x8(%ebp)
c00419f6:	0f b6 00             	movzbl (%eax),%eax
c00419f9:	0f be c0             	movsbl %al,%eax
c00419fc:	83 ec 04             	sub    $0x4,%esp
c00419ff:	6a 0f                	push   $0xf
c0041a01:	6a 00                	push   $0x0
c0041a03:	50                   	push   %eax
c0041a04:	e8 01 01 00 00       	call   c0041b0a <console_putc_color>
c0041a09:	83 c4 10             	add    $0x10,%esp
c0041a0c:	8b 45 08             	mov    0x8(%ebp),%eax
c0041a0f:	0f b6 00             	movzbl (%eax),%eax
c0041a12:	84 c0                	test   %al,%al
c0041a14:	75 d7                	jne    c00419ed <console_write+0x12>
c0041a16:	90                   	nop
c0041a17:	c9                   	leave  
c0041a18:	c3                   	ret    

c0041a19 <console_write_color>:
c0041a19:	55                   	push   %ebp
c0041a1a:	89 e5                	mov    %esp,%ebp
c0041a1c:	83 ec 08             	sub    $0x8,%esp
c0041a1f:	e8 93 12 00 00       	call   c0042cb7 <__x86.get_pc_thunk.ax>
c0041a24:	05 b0 1c 00 00       	add    $0x1cb0,%eax
c0041a29:	eb 21                	jmp    c0041a4c <console_write_color+0x33>
c0041a2b:	8b 45 08             	mov    0x8(%ebp),%eax
c0041a2e:	8d 50 01             	lea    0x1(%eax),%edx
c0041a31:	89 55 08             	mov    %edx,0x8(%ebp)
c0041a34:	0f b6 00             	movzbl (%eax),%eax
c0041a37:	0f be c0             	movsbl %al,%eax
c0041a3a:	83 ec 04             	sub    $0x4,%esp
c0041a3d:	ff 75 10             	pushl  0x10(%ebp)
c0041a40:	ff 75 0c             	pushl  0xc(%ebp)
c0041a43:	50                   	push   %eax
c0041a44:	e8 c1 00 00 00       	call   c0041b0a <console_putc_color>
c0041a49:	83 c4 10             	add    $0x10,%esp
c0041a4c:	8b 45 08             	mov    0x8(%ebp),%eax
c0041a4f:	0f b6 00             	movzbl (%eax),%eax
c0041a52:	84 c0                	test   %al,%al
c0041a54:	75 d5                	jne    c0041a2b <console_write_color+0x12>
c0041a56:	90                   	nop
c0041a57:	c9                   	leave  
c0041a58:	c3                   	ret    

c0041a59 <scoll>:
c0041a59:	55                   	push   %ebp
c0041a5a:	89 e5                	mov    %esp,%ebp
c0041a5c:	53                   	push   %ebx
c0041a5d:	83 ec 10             	sub    $0x10,%esp
c0041a60:	e8 52 12 00 00       	call   c0042cb7 <__x86.get_pc_thunk.ax>
c0041a65:	05 6f 1c 00 00       	add    $0x1c6f,%eax
c0041a6a:	c6 45 f9 0f          	movb   $0xf,-0x7(%ebp)
c0041a6e:	0f b6 55 f9          	movzbl -0x7(%ebp),%edx
c0041a72:	c1 e2 08             	shl    $0x8,%edx
c0041a75:	83 ca 20             	or     $0x20,%edx
c0041a78:	66 89 55 f6          	mov    %dx,-0xa(%ebp)
c0041a7c:	c7 c2 e1 76 04 c0    	mov    $0xc00476e1,%edx
c0041a82:	0f b6 12             	movzbl (%edx),%edx
c0041a85:	80 fa 18             	cmp    $0x18,%dl
c0041a88:	76 79                	jbe    c0041b03 <scoll+0xaa>
c0041a8a:	66 c7 45 fa 00 00    	movw   $0x0,-0x6(%ebp)
c0041a90:	eb 30                	jmp    c0041ac2 <scoll+0x69>
c0041a92:	8b 90 fc ff ff ff    	mov    -0x4(%eax),%edx
c0041a98:	0f b7 4d fa          	movzwl -0x6(%ebp),%ecx
c0041a9c:	83 c1 50             	add    $0x50,%ecx
c0041a9f:	01 c9                	add    %ecx,%ecx
c0041aa1:	01 ca                	add    %ecx,%edx
c0041aa3:	8b 88 fc ff ff ff    	mov    -0x4(%eax),%ecx
c0041aa9:	0f b7 5d fa          	movzwl -0x6(%ebp),%ebx
c0041aad:	01 db                	add    %ebx,%ebx
c0041aaf:	01 d9                	add    %ebx,%ecx
c0041ab1:	0f b7 12             	movzwl (%edx),%edx
c0041ab4:	66 89 11             	mov    %dx,(%ecx)
c0041ab7:	0f b7 55 fa          	movzwl -0x6(%ebp),%edx
c0041abb:	83 c2 01             	add    $0x1,%edx
c0041abe:	66 89 55 fa          	mov    %dx,-0x6(%ebp)
c0041ac2:	66 81 7d fa 7f 07    	cmpw   $0x77f,-0x6(%ebp)
c0041ac8:	76 c8                	jbe    c0041a92 <scoll+0x39>
c0041aca:	66 c7 45 fa 80 07    	movw   $0x780,-0x6(%ebp)
c0041ad0:	eb 20                	jmp    c0041af2 <scoll+0x99>
c0041ad2:	8b 90 fc ff ff ff    	mov    -0x4(%eax),%edx
c0041ad8:	0f b7 4d fa          	movzwl -0x6(%ebp),%ecx
c0041adc:	01 c9                	add    %ecx,%ecx
c0041ade:	01 d1                	add    %edx,%ecx
c0041ae0:	0f b7 55 f6          	movzwl -0xa(%ebp),%edx
c0041ae4:	66 89 11             	mov    %dx,(%ecx)
c0041ae7:	0f b7 55 fa          	movzwl -0x6(%ebp),%edx
c0041aeb:	83 c2 01             	add    $0x1,%edx
c0041aee:	66 89 55 fa          	mov    %dx,-0x6(%ebp)
c0041af2:	66 81 7d fa cf 07    	cmpw   $0x7cf,-0x6(%ebp)
c0041af8:	76 d8                	jbe    c0041ad2 <scoll+0x79>
c0041afa:	c7 c0 e1 76 04 c0    	mov    $0xc00476e1,%eax
c0041b00:	c6 00 18             	movb   $0x18,(%eax)
c0041b03:	90                   	nop
c0041b04:	83 c4 10             	add    $0x10,%esp
c0041b07:	5b                   	pop    %ebx
c0041b08:	5d                   	pop    %ebp
c0041b09:	c3                   	ret    

c0041b0a <console_putc_color>:
c0041b0a:	55                   	push   %ebp
c0041b0b:	89 e5                	mov    %esp,%ebp
c0041b0d:	56                   	push   %esi
c0041b0e:	53                   	push   %ebx
c0041b0f:	83 ec 20             	sub    $0x20,%esp
c0041b12:	e8 a0 11 00 00       	call   c0042cb7 <__x86.get_pc_thunk.ax>
c0041b17:	05 bd 1b 00 00       	add    $0x1bbd,%eax
c0041b1c:	8b 55 08             	mov    0x8(%ebp),%edx
c0041b1f:	88 55 e4             	mov    %dl,-0x1c(%ebp)
c0041b22:	8b 55 0c             	mov    0xc(%ebp),%edx
c0041b25:	89 d1                	mov    %edx,%ecx
c0041b27:	c1 e1 04             	shl    $0x4,%ecx
c0041b2a:	8b 55 10             	mov    0x10(%ebp),%edx
c0041b2d:	83 e2 0f             	and    $0xf,%edx
c0041b30:	09 ca                	or     %ecx,%edx
c0041b32:	88 55 f7             	mov    %dl,-0x9(%ebp)
c0041b35:	0f b6 55 f7          	movzbl -0x9(%ebp),%edx
c0041b39:	c1 e2 08             	shl    $0x8,%edx
c0041b3c:	66 89 55 f4          	mov    %dx,-0xc(%ebp)
c0041b40:	80 7d e4 08          	cmpb   $0x8,-0x1c(%ebp)
c0041b44:	75 26                	jne    c0041b6c <console_putc_color+0x62>
c0041b46:	c7 c2 e0 76 04 c0    	mov    $0xc00476e0,%edx
c0041b4c:	0f b6 12             	movzbl (%edx),%edx
c0041b4f:	84 d2                	test   %dl,%dl
c0041b51:	74 19                	je     c0041b6c <console_putc_color+0x62>
c0041b53:	c7 c2 e0 76 04 c0    	mov    $0xc00476e0,%edx
c0041b59:	0f b6 12             	movzbl (%edx),%edx
c0041b5c:	8d 4a ff             	lea    -0x1(%edx),%ecx
c0041b5f:	c7 c2 e0 76 04 c0    	mov    $0xc00476e0,%edx
c0041b65:	88 0a                	mov    %cl,(%edx)
c0041b67:	e9 b9 00 00 00       	jmp    c0041c25 <console_putc_color+0x11b>
c0041b6c:	80 7d e4 09          	cmpb   $0x9,-0x1c(%ebp)
c0041b70:	75 1e                	jne    c0041b90 <console_putc_color+0x86>
c0041b72:	c7 c2 e0 76 04 c0    	mov    $0xc00476e0,%edx
c0041b78:	0f b6 12             	movzbl (%edx),%edx
c0041b7b:	83 c2 08             	add    $0x8,%edx
c0041b7e:	89 d1                	mov    %edx,%ecx
c0041b80:	83 e1 f8             	and    $0xfffffff8,%ecx
c0041b83:	c7 c2 e0 76 04 c0    	mov    $0xc00476e0,%edx
c0041b89:	88 0a                	mov    %cl,(%edx)
c0041b8b:	e9 95 00 00 00       	jmp    c0041c25 <console_putc_color+0x11b>
c0041b90:	80 7d e4 0d          	cmpb   $0xd,-0x1c(%ebp)
c0041b94:	75 0e                	jne    c0041ba4 <console_putc_color+0x9a>
c0041b96:	c7 c2 e0 76 04 c0    	mov    $0xc00476e0,%edx
c0041b9c:	c6 02 00             	movb   $0x0,(%edx)
c0041b9f:	e9 81 00 00 00       	jmp    c0041c25 <console_putc_color+0x11b>
c0041ba4:	80 7d e4 0a          	cmpb   $0xa,-0x1c(%ebp)
c0041ba8:	75 1f                	jne    c0041bc9 <console_putc_color+0xbf>
c0041baa:	c7 c2 e0 76 04 c0    	mov    $0xc00476e0,%edx
c0041bb0:	c6 02 00             	movb   $0x0,(%edx)
c0041bb3:	c7 c2 e1 76 04 c0    	mov    $0xc00476e1,%edx
c0041bb9:	0f b6 12             	movzbl (%edx),%edx
c0041bbc:	8d 4a 01             	lea    0x1(%edx),%ecx
c0041bbf:	c7 c2 e1 76 04 c0    	mov    $0xc00476e1,%edx
c0041bc5:	88 0a                	mov    %cl,(%edx)
c0041bc7:	eb 5c                	jmp    c0041c25 <console_putc_color+0x11b>
c0041bc9:	80 7d e4 1f          	cmpb   $0x1f,-0x1c(%ebp)
c0041bcd:	7e 56                	jle    c0041c25 <console_putc_color+0x11b>
c0041bcf:	66 0f be 4d e4       	movsbw -0x1c(%ebp),%cx
c0041bd4:	0f b7 55 f4          	movzwl -0xc(%ebp),%edx
c0041bd8:	89 ce                	mov    %ecx,%esi
c0041bda:	09 d6                	or     %edx,%esi
c0041bdc:	8b 98 fc ff ff ff    	mov    -0x4(%eax),%ebx
c0041be2:	c7 c2 e1 76 04 c0    	mov    $0xc00476e1,%edx
c0041be8:	0f b6 12             	movzbl (%edx),%edx
c0041beb:	0f b6 ca             	movzbl %dl,%ecx
c0041bee:	89 ca                	mov    %ecx,%edx
c0041bf0:	c1 e2 02             	shl    $0x2,%edx
c0041bf3:	01 ca                	add    %ecx,%edx
c0041bf5:	c1 e2 04             	shl    $0x4,%edx
c0041bf8:	89 d1                	mov    %edx,%ecx
c0041bfa:	c7 c2 e0 76 04 c0    	mov    $0xc00476e0,%edx
c0041c00:	0f b6 12             	movzbl (%edx),%edx
c0041c03:	0f b6 d2             	movzbl %dl,%edx
c0041c06:	01 ca                	add    %ecx,%edx
c0041c08:	01 d2                	add    %edx,%edx
c0041c0a:	01 da                	add    %ebx,%edx
c0041c0c:	89 f1                	mov    %esi,%ecx
c0041c0e:	66 89 0a             	mov    %cx,(%edx)
c0041c11:	c7 c2 e0 76 04 c0    	mov    $0xc00476e0,%edx
c0041c17:	0f b6 12             	movzbl (%edx),%edx
c0041c1a:	8d 4a 01             	lea    0x1(%edx),%ecx
c0041c1d:	c7 c2 e0 76 04 c0    	mov    $0xc00476e0,%edx
c0041c23:	88 0a                	mov    %cl,(%edx)
c0041c25:	c7 c2 e0 76 04 c0    	mov    $0xc00476e0,%edx
c0041c2b:	0f b6 12             	movzbl (%edx),%edx
c0041c2e:	80 fa 4f             	cmp    $0x4f,%dl
c0041c31:	76 1d                	jbe    c0041c50 <console_putc_color+0x146>
c0041c33:	c7 c2 e0 76 04 c0    	mov    $0xc00476e0,%edx
c0041c39:	c6 02 00             	movb   $0x0,(%edx)
c0041c3c:	c7 c2 e1 76 04 c0    	mov    $0xc00476e1,%edx
c0041c42:	0f b6 12             	movzbl (%edx),%edx
c0041c45:	83 c2 01             	add    $0x1,%edx
c0041c48:	c7 c0 e1 76 04 c0    	mov    $0xc00476e1,%eax
c0041c4e:	88 10                	mov    %dl,(%eax)
c0041c50:	e8 04 fe ff ff       	call   c0041a59 <scoll>
c0041c55:	e8 f6 fb ff ff       	call   c0041850 <move_cursor>
c0041c5a:	90                   	nop
c0041c5b:	83 c4 20             	add    $0x20,%esp
c0041c5e:	5b                   	pop    %ebx
c0041c5f:	5e                   	pop    %esi
c0041c60:	5d                   	pop    %ebp
c0041c61:	c3                   	ret    

c0041c62 <skip_atoi>:
c0041c62:	55                   	push   %ebp
c0041c63:	89 e5                	mov    %esp,%ebp
c0041c65:	53                   	push   %ebx
c0041c66:	83 ec 10             	sub    $0x10,%esp
c0041c69:	e8 49 10 00 00       	call   c0042cb7 <__x86.get_pc_thunk.ax>
c0041c6e:	05 66 1a 00 00       	add    $0x1a66,%eax
c0041c73:	c7 45 f8 00 00 00 00 	movl   $0x0,-0x8(%ebp)
c0041c7a:	eb 29                	jmp    c0041ca5 <skip_atoi+0x43>
c0041c7c:	8b 55 f8             	mov    -0x8(%ebp),%edx
c0041c7f:	89 d0                	mov    %edx,%eax
c0041c81:	c1 e0 02             	shl    $0x2,%eax
c0041c84:	01 d0                	add    %edx,%eax
c0041c86:	01 c0                	add    %eax,%eax
c0041c88:	89 c3                	mov    %eax,%ebx
c0041c8a:	8b 45 08             	mov    0x8(%ebp),%eax
c0041c8d:	8b 00                	mov    (%eax),%eax
c0041c8f:	8d 48 01             	lea    0x1(%eax),%ecx
c0041c92:	8b 55 08             	mov    0x8(%ebp),%edx
c0041c95:	89 0a                	mov    %ecx,(%edx)
c0041c97:	0f b6 00             	movzbl (%eax),%eax
c0041c9a:	0f be c0             	movsbl %al,%eax
c0041c9d:	01 d8                	add    %ebx,%eax
c0041c9f:	83 e8 30             	sub    $0x30,%eax
c0041ca2:	89 45 f8             	mov    %eax,-0x8(%ebp)
c0041ca5:	8b 45 08             	mov    0x8(%ebp),%eax
c0041ca8:	8b 00                	mov    (%eax),%eax
c0041caa:	0f b6 00             	movzbl (%eax),%eax
c0041cad:	3c 2f                	cmp    $0x2f,%al
c0041caf:	7e 0c                	jle    c0041cbd <skip_atoi+0x5b>
c0041cb1:	8b 45 08             	mov    0x8(%ebp),%eax
c0041cb4:	8b 00                	mov    (%eax),%eax
c0041cb6:	0f b6 00             	movzbl (%eax),%eax
c0041cb9:	3c 39                	cmp    $0x39,%al
c0041cbb:	7e bf                	jle    c0041c7c <skip_atoi+0x1a>
c0041cbd:	8b 45 f8             	mov    -0x8(%ebp),%eax
c0041cc0:	83 c4 10             	add    $0x10,%esp
c0041cc3:	5b                   	pop    %ebx
c0041cc4:	5d                   	pop    %ebp
c0041cc5:	c3                   	ret    

c0041cc6 <itoa>:
c0041cc6:	55                   	push   %ebp
c0041cc7:	89 e5                	mov    %esp,%ebp
c0041cc9:	83 ec 10             	sub    $0x10,%esp
c0041ccc:	e8 e6 0f 00 00       	call   c0042cb7 <__x86.get_pc_thunk.ax>
c0041cd1:	05 03 1a 00 00       	add    $0x1a03,%eax
c0041cd6:	c7 45 fc 00 00 00 00 	movl   $0x0,-0x4(%ebp)
c0041cdd:	c6 45 fb 00          	movb   $0x0,-0x5(%ebp)
c0041ce1:	83 7d 0c 00          	cmpl   $0x0,0xc(%ebp)
c0041ce5:	75 6a                	jne    c0041d51 <itoa+0x8b>
c0041ce7:	8b 45 fc             	mov    -0x4(%ebp),%eax
c0041cea:	8d 50 01             	lea    0x1(%eax),%edx
c0041ced:	89 55 fc             	mov    %edx,-0x4(%ebp)
c0041cf0:	8b 55 08             	mov    0x8(%ebp),%edx
c0041cf3:	01 d0                	add    %edx,%eax
c0041cf5:	c6 00 30             	movb   $0x30,(%eax)
c0041cf8:	8b 55 08             	mov    0x8(%ebp),%edx
c0041cfb:	8b 45 fc             	mov    -0x4(%ebp),%eax
c0041cfe:	01 d0                	add    %edx,%eax
c0041d00:	c6 00 00             	movb   $0x0,(%eax)
c0041d03:	8b 45 08             	mov    0x8(%ebp),%eax
c0041d06:	e9 80 00 00 00       	jmp    c0041d8b <itoa+0xc5>
c0041d0b:	8b 45 0c             	mov    0xc(%ebp),%eax
c0041d0e:	ba 00 00 00 00       	mov    $0x0,%edx
c0041d13:	f7 75 10             	divl   0x10(%ebp)
c0041d16:	89 d0                	mov    %edx,%eax
c0041d18:	89 45 f4             	mov    %eax,-0xc(%ebp)
c0041d1b:	83 7d f4 09          	cmpl   $0x9,-0xc(%ebp)
c0041d1f:	7e 0a                	jle    c0041d2b <itoa+0x65>
c0041d21:	8b 45 f4             	mov    -0xc(%ebp),%eax
c0041d24:	83 c0 57             	add    $0x57,%eax
c0041d27:	89 c1                	mov    %eax,%ecx
c0041d29:	eb 08                	jmp    c0041d33 <itoa+0x6d>
c0041d2b:	8b 45 f4             	mov    -0xc(%ebp),%eax
c0041d2e:	83 c0 30             	add    $0x30,%eax
c0041d31:	89 c1                	mov    %eax,%ecx
c0041d33:	8b 45 fc             	mov    -0x4(%ebp),%eax
c0041d36:	8d 50 01             	lea    0x1(%eax),%edx
c0041d39:	89 55 fc             	mov    %edx,-0x4(%ebp)
c0041d3c:	8b 55 08             	mov    0x8(%ebp),%edx
c0041d3f:	01 d0                	add    %edx,%eax
c0041d41:	88 08                	mov    %cl,(%eax)
c0041d43:	8b 45 0c             	mov    0xc(%ebp),%eax
c0041d46:	ba 00 00 00 00       	mov    $0x0,%edx
c0041d4b:	f7 75 10             	divl   0x10(%ebp)
c0041d4e:	89 45 0c             	mov    %eax,0xc(%ebp)
c0041d51:	83 7d 0c 00          	cmpl   $0x0,0xc(%ebp)
c0041d55:	75 b4                	jne    c0041d0b <itoa+0x45>
c0041d57:	80 7d fb 00          	cmpb   $0x0,-0x5(%ebp)
c0041d5b:	74 11                	je     c0041d6e <itoa+0xa8>
c0041d5d:	8b 45 fc             	mov    -0x4(%ebp),%eax
c0041d60:	8d 50 01             	lea    0x1(%eax),%edx
c0041d63:	89 55 fc             	mov    %edx,-0x4(%ebp)
c0041d66:	8b 55 08             	mov    0x8(%ebp),%edx
c0041d69:	01 d0                	add    %edx,%eax
c0041d6b:	c6 00 2d             	movb   $0x2d,(%eax)
c0041d6e:	8b 55 08             	mov    0x8(%ebp),%edx
c0041d71:	8b 45 fc             	mov    -0x4(%ebp),%eax
c0041d74:	01 d0                	add    %edx,%eax
c0041d76:	c6 00 00             	movb   $0x0,(%eax)
c0041d79:	8b 45 fc             	mov    -0x4(%ebp),%eax
c0041d7c:	50                   	push   %eax
c0041d7d:	ff 75 08             	pushl  0x8(%ebp)
c0041d80:	e8 9b fb ff ff       	call   c0041920 <reverse>
c0041d85:	83 c4 08             	add    $0x8,%esp
c0041d88:	8b 45 08             	mov    0x8(%ebp),%eax
c0041d8b:	c9                   	leave  
c0041d8c:	c3                   	ret    

c0041d8d <printk>:
c0041d8d:	55                   	push   %ebp
c0041d8e:	89 e5                	mov    %esp,%ebp
c0041d90:	53                   	push   %ebx
c0041d91:	83 ec 14             	sub    $0x14,%esp
c0041d94:	e8 22 0f 00 00       	call   c0042cbb <__x86.get_pc_thunk.bx>
c0041d99:	81 c3 3b 19 00 00    	add    $0x193b,%ebx
c0041d9f:	8d 45 0c             	lea    0xc(%ebp),%eax
c0041da2:	89 45 f0             	mov    %eax,-0x10(%ebp)
c0041da5:	8b 45 f0             	mov    -0x10(%ebp),%eax
c0041da8:	83 ec 04             	sub    $0x4,%esp
c0041dab:	50                   	push   %eax
c0041dac:	ff 75 08             	pushl  0x8(%ebp)
c0041daf:	8d 83 2c 40 00 00    	lea    0x402c(%ebx),%eax
c0041db5:	50                   	push   %eax
c0041db6:	e8 bf 02 00 00       	call   c004207a <vsprintf>
c0041dbb:	83 c4 10             	add    $0x10,%esp
c0041dbe:	89 45 f4             	mov    %eax,-0xc(%ebp)
c0041dc1:	8d 93 2c 40 00 00    	lea    0x402c(%ebx),%edx
c0041dc7:	8b 45 f4             	mov    -0xc(%ebp),%eax
c0041dca:	01 d0                	add    %edx,%eax
c0041dcc:	c6 00 00             	movb   $0x0,(%eax)
c0041dcf:	83 ec 0c             	sub    $0xc,%esp
c0041dd2:	8d 83 2c 40 00 00    	lea    0x402c(%ebx),%eax
c0041dd8:	50                   	push   %eax
c0041dd9:	e8 fd fb ff ff       	call   c00419db <console_write>
c0041dde:	83 c4 10             	add    $0x10,%esp
c0041de1:	90                   	nop
c0041de2:	8b 5d fc             	mov    -0x4(%ebp),%ebx
c0041de5:	c9                   	leave  
c0041de6:	c3                   	ret    

c0041de7 <printk_color>:
c0041de7:	55                   	push   %ebp
c0041de8:	89 e5                	mov    %esp,%ebp
c0041dea:	53                   	push   %ebx
c0041deb:	83 ec 14             	sub    $0x14,%esp
c0041dee:	e8 c8 0e 00 00       	call   c0042cbb <__x86.get_pc_thunk.bx>
c0041df3:	81 c3 e1 18 00 00    	add    $0x18e1,%ebx
c0041df9:	8d 45 14             	lea    0x14(%ebp),%eax
c0041dfc:	89 45 f0             	mov    %eax,-0x10(%ebp)
c0041dff:	8b 45 f0             	mov    -0x10(%ebp),%eax
c0041e02:	83 ec 04             	sub    $0x4,%esp
c0041e05:	50                   	push   %eax
c0041e06:	ff 75 10             	pushl  0x10(%ebp)
c0041e09:	8d 83 2c 44 00 00    	lea    0x442c(%ebx),%eax
c0041e0f:	50                   	push   %eax
c0041e10:	e8 65 02 00 00       	call   c004207a <vsprintf>
c0041e15:	83 c4 10             	add    $0x10,%esp
c0041e18:	89 45 f4             	mov    %eax,-0xc(%ebp)
c0041e1b:	8d 93 2c 44 00 00    	lea    0x442c(%ebx),%edx
c0041e21:	8b 45 f4             	mov    -0xc(%ebp),%eax
c0041e24:	01 d0                	add    %edx,%eax
c0041e26:	c6 00 00             	movb   $0x0,(%eax)
c0041e29:	83 ec 04             	sub    $0x4,%esp
c0041e2c:	ff 75 0c             	pushl  0xc(%ebp)
c0041e2f:	ff 75 08             	pushl  0x8(%ebp)
c0041e32:	8d 83 2c 44 00 00    	lea    0x442c(%ebx),%eax
c0041e38:	50                   	push   %eax
c0041e39:	e8 db fb ff ff       	call   c0041a19 <console_write_color>
c0041e3e:	83 c4 10             	add    $0x10,%esp
c0041e41:	90                   	nop
c0041e42:	8b 5d fc             	mov    -0x4(%ebp),%ebx
c0041e45:	c9                   	leave  
c0041e46:	c3                   	ret    

c0041e47 <number>:
c0041e47:	55                   	push   %ebp
c0041e48:	89 e5                	mov    %esp,%ebp
c0041e4a:	83 ec 40             	sub    $0x40,%esp
c0041e4d:	e8 65 0e 00 00       	call   c0042cb7 <__x86.get_pc_thunk.ax>
c0041e52:	05 82 18 00 00       	add    $0x1882,%eax
c0041e57:	8d 90 c8 fd ff ff    	lea    -0x238(%eax),%edx
c0041e5d:	89 55 f8             	mov    %edx,-0x8(%ebp)
c0041e60:	8b 55 1c             	mov    0x1c(%ebp),%edx
c0041e63:	83 e2 40             	and    $0x40,%edx
c0041e66:	85 d2                	test   %edx,%edx
c0041e68:	74 09                	je     c0041e73 <number+0x2c>
c0041e6a:	8d 80 f0 fd ff ff    	lea    -0x210(%eax),%eax
c0041e70:	89 45 f8             	mov    %eax,-0x8(%ebp)
c0041e73:	8b 45 1c             	mov    0x1c(%ebp),%eax
c0041e76:	83 e0 10             	and    $0x10,%eax
c0041e79:	85 c0                	test   %eax,%eax
c0041e7b:	74 04                	je     c0041e81 <number+0x3a>
c0041e7d:	83 65 1c fe          	andl   $0xfffffffe,0x1c(%ebp)
c0041e81:	83 7d 10 01          	cmpl   $0x1,0x10(%ebp)
c0041e85:	7e 06                	jle    c0041e8d <number+0x46>
c0041e87:	83 7d 10 24          	cmpl   $0x24,0x10(%ebp)
c0041e8b:	7e 0a                	jle    c0041e97 <number+0x50>
c0041e8d:	b8 00 00 00 00       	mov    $0x0,%eax
c0041e92:	e9 e1 01 00 00       	jmp    c0042078 <number+0x231>
c0041e97:	8b 45 1c             	mov    0x1c(%ebp),%eax
c0041e9a:	83 e0 01             	and    $0x1,%eax
c0041e9d:	85 c0                	test   %eax,%eax
c0041e9f:	74 07                	je     c0041ea8 <number+0x61>
c0041ea1:	b8 30 00 00 00       	mov    $0x30,%eax
c0041ea6:	eb 05                	jmp    c0041ead <number+0x66>
c0041ea8:	b8 20 00 00 00       	mov    $0x20,%eax
c0041ead:	88 45 f3             	mov    %al,-0xd(%ebp)
c0041eb0:	8b 45 1c             	mov    0x1c(%ebp),%eax
c0041eb3:	83 e0 02             	and    $0x2,%eax
c0041eb6:	85 c0                	test   %eax,%eax
c0041eb8:	74 0f                	je     c0041ec9 <number+0x82>
c0041eba:	83 7d 0c 00          	cmpl   $0x0,0xc(%ebp)
c0041ebe:	79 09                	jns    c0041ec9 <number+0x82>
c0041ec0:	c6 45 ff 2d          	movb   $0x2d,-0x1(%ebp)
c0041ec4:	f7 5d 0c             	negl   0xc(%ebp)
c0041ec7:	eb 1d                	jmp    c0041ee6 <number+0x9f>
c0041ec9:	8b 45 1c             	mov    0x1c(%ebp),%eax
c0041ecc:	83 e0 04             	and    $0x4,%eax
c0041ecf:	85 c0                	test   %eax,%eax
c0041ed1:	75 0b                	jne    c0041ede <number+0x97>
c0041ed3:	8b 45 1c             	mov    0x1c(%ebp),%eax
c0041ed6:	c1 e0 02             	shl    $0x2,%eax
c0041ed9:	83 e0 20             	and    $0x20,%eax
c0041edc:	eb 05                	jmp    c0041ee3 <number+0x9c>
c0041ede:	b8 2b 00 00 00       	mov    $0x2b,%eax
c0041ee3:	88 45 ff             	mov    %al,-0x1(%ebp)
c0041ee6:	80 7d ff 00          	cmpb   $0x0,-0x1(%ebp)
c0041eea:	74 04                	je     c0041ef0 <number+0xa9>
c0041eec:	83 6d 14 01          	subl   $0x1,0x14(%ebp)
c0041ef0:	8b 45 1c             	mov    0x1c(%ebp),%eax
c0041ef3:	83 e0 20             	and    $0x20,%eax
c0041ef6:	85 c0                	test   %eax,%eax
c0041ef8:	74 16                	je     c0041f10 <number+0xc9>
c0041efa:	83 7d 10 10          	cmpl   $0x10,0x10(%ebp)
c0041efe:	75 06                	jne    c0041f06 <number+0xbf>
c0041f00:	83 6d 14 02          	subl   $0x2,0x14(%ebp)
c0041f04:	eb 0a                	jmp    c0041f10 <number+0xc9>
c0041f06:	83 7d 10 08          	cmpl   $0x8,0x10(%ebp)
c0041f0a:	75 04                	jne    c0041f10 <number+0xc9>
c0041f0c:	83 6d 14 01          	subl   $0x1,0x14(%ebp)
c0041f10:	c7 45 f4 00 00 00 00 	movl   $0x0,-0xc(%ebp)
c0041f17:	83 7d 0c 00          	cmpl   $0x0,0xc(%ebp)
c0041f1b:	75 3e                	jne    c0041f5b <number+0x114>
c0041f1d:	8b 45 f4             	mov    -0xc(%ebp),%eax
c0041f20:	8d 50 01             	lea    0x1(%eax),%edx
c0041f23:	89 55 f4             	mov    %edx,-0xc(%ebp)
c0041f26:	c6 44 05 c8 30       	movb   $0x30,-0x38(%ebp,%eax,1)
c0041f2b:	eb 34                	jmp    c0041f61 <number+0x11a>
c0041f2d:	8b 45 0c             	mov    0xc(%ebp),%eax
c0041f30:	ba 00 00 00 00       	mov    $0x0,%edx
c0041f35:	8b 4d 10             	mov    0x10(%ebp),%ecx
c0041f38:	f7 f1                	div    %ecx
c0041f3a:	89 45 0c             	mov    %eax,0xc(%ebp)
c0041f3d:	89 55 ec             	mov    %edx,-0x14(%ebp)
c0041f40:	8b 45 ec             	mov    -0x14(%ebp),%eax
c0041f43:	89 c2                	mov    %eax,%edx
c0041f45:	8b 45 f8             	mov    -0x8(%ebp),%eax
c0041f48:	8d 0c 02             	lea    (%edx,%eax,1),%ecx
c0041f4b:	8b 45 f4             	mov    -0xc(%ebp),%eax
c0041f4e:	8d 50 01             	lea    0x1(%eax),%edx
c0041f51:	89 55 f4             	mov    %edx,-0xc(%ebp)
c0041f54:	0f b6 11             	movzbl (%ecx),%edx
c0041f57:	88 54 05 c8          	mov    %dl,-0x38(%ebp,%eax,1)
c0041f5b:	83 7d 0c 00          	cmpl   $0x0,0xc(%ebp)
c0041f5f:	75 cc                	jne    c0041f2d <number+0xe6>
c0041f61:	8b 45 f4             	mov    -0xc(%ebp),%eax
c0041f64:	3b 45 18             	cmp    0x18(%ebp),%eax
c0041f67:	7e 06                	jle    c0041f6f <number+0x128>
c0041f69:	8b 45 f4             	mov    -0xc(%ebp),%eax
c0041f6c:	89 45 18             	mov    %eax,0x18(%ebp)
c0041f6f:	8b 45 18             	mov    0x18(%ebp),%eax
c0041f72:	29 45 14             	sub    %eax,0x14(%ebp)
c0041f75:	8b 45 1c             	mov    0x1c(%ebp),%eax
c0041f78:	83 e0 11             	and    $0x11,%eax
c0041f7b:	85 c0                	test   %eax,%eax
c0041f7d:	75 1b                	jne    c0041f9a <number+0x153>
c0041f7f:	eb 0c                	jmp    c0041f8d <number+0x146>
c0041f81:	8b 45 08             	mov    0x8(%ebp),%eax
c0041f84:	8d 50 01             	lea    0x1(%eax),%edx
c0041f87:	89 55 08             	mov    %edx,0x8(%ebp)
c0041f8a:	c6 00 20             	movb   $0x20,(%eax)
c0041f8d:	8b 45 14             	mov    0x14(%ebp),%eax
c0041f90:	8d 50 ff             	lea    -0x1(%eax),%edx
c0041f93:	89 55 14             	mov    %edx,0x14(%ebp)
c0041f96:	85 c0                	test   %eax,%eax
c0041f98:	7f e7                	jg     c0041f81 <number+0x13a>
c0041f9a:	80 7d ff 00          	cmpb   $0x0,-0x1(%ebp)
c0041f9e:	74 0f                	je     c0041faf <number+0x168>
c0041fa0:	8b 45 08             	mov    0x8(%ebp),%eax
c0041fa3:	8d 50 01             	lea    0x1(%eax),%edx
c0041fa6:	89 55 08             	mov    %edx,0x8(%ebp)
c0041fa9:	0f b6 55 ff          	movzbl -0x1(%ebp),%edx
c0041fad:	88 10                	mov    %dl,(%eax)
c0041faf:	8b 45 1c             	mov    0x1c(%ebp),%eax
c0041fb2:	83 e0 20             	and    $0x20,%eax
c0041fb5:	85 c0                	test   %eax,%eax
c0041fb7:	74 38                	je     c0041ff1 <number+0x1aa>
c0041fb9:	83 7d 10 08          	cmpl   $0x8,0x10(%ebp)
c0041fbd:	75 0e                	jne    c0041fcd <number+0x186>
c0041fbf:	8b 45 08             	mov    0x8(%ebp),%eax
c0041fc2:	8d 50 01             	lea    0x1(%eax),%edx
c0041fc5:	89 55 08             	mov    %edx,0x8(%ebp)
c0041fc8:	c6 00 30             	movb   $0x30,(%eax)
c0041fcb:	eb 24                	jmp    c0041ff1 <number+0x1aa>
c0041fcd:	83 7d 10 10          	cmpl   $0x10,0x10(%ebp)
c0041fd1:	75 1e                	jne    c0041ff1 <number+0x1aa>
c0041fd3:	8b 45 08             	mov    0x8(%ebp),%eax
c0041fd6:	8d 50 01             	lea    0x1(%eax),%edx
c0041fd9:	89 55 08             	mov    %edx,0x8(%ebp)
c0041fdc:	c6 00 30             	movb   $0x30,(%eax)
c0041fdf:	8b 45 08             	mov    0x8(%ebp),%eax
c0041fe2:	8d 50 01             	lea    0x1(%eax),%edx
c0041fe5:	89 55 08             	mov    %edx,0x8(%ebp)
c0041fe8:	8b 55 f8             	mov    -0x8(%ebp),%edx
c0041feb:	0f b6 52 21          	movzbl 0x21(%edx),%edx
c0041fef:	88 10                	mov    %dl,(%eax)
c0041ff1:	8b 45 1c             	mov    0x1c(%ebp),%eax
c0041ff4:	83 e0 10             	and    $0x10,%eax
c0041ff7:	85 c0                	test   %eax,%eax
c0041ff9:	75 2c                	jne    c0042027 <number+0x1e0>
c0041ffb:	eb 0f                	jmp    c004200c <number+0x1c5>
c0041ffd:	8b 45 08             	mov    0x8(%ebp),%eax
c0042000:	8d 50 01             	lea    0x1(%eax),%edx
c0042003:	89 55 08             	mov    %edx,0x8(%ebp)
c0042006:	0f b6 55 f3          	movzbl -0xd(%ebp),%edx
c004200a:	88 10                	mov    %dl,(%eax)
c004200c:	8b 45 14             	mov    0x14(%ebp),%eax
c004200f:	8d 50 ff             	lea    -0x1(%eax),%edx
c0042012:	89 55 14             	mov    %edx,0x14(%ebp)
c0042015:	85 c0                	test   %eax,%eax
c0042017:	7f e4                	jg     c0041ffd <number+0x1b6>
c0042019:	eb 0c                	jmp    c0042027 <number+0x1e0>
c004201b:	8b 45 08             	mov    0x8(%ebp),%eax
c004201e:	8d 50 01             	lea    0x1(%eax),%edx
c0042021:	89 55 08             	mov    %edx,0x8(%ebp)
c0042024:	c6 00 30             	movb   $0x30,(%eax)
c0042027:	8b 45 18             	mov    0x18(%ebp),%eax
c004202a:	8d 50 ff             	lea    -0x1(%eax),%edx
c004202d:	89 55 18             	mov    %edx,0x18(%ebp)
c0042030:	39 45 f4             	cmp    %eax,-0xc(%ebp)
c0042033:	7c e6                	jl     c004201b <number+0x1d4>
c0042035:	eb 16                	jmp    c004204d <number+0x206>
c0042037:	8b 45 08             	mov    0x8(%ebp),%eax
c004203a:	8d 50 01             	lea    0x1(%eax),%edx
c004203d:	89 55 08             	mov    %edx,0x8(%ebp)
c0042040:	8d 4d c8             	lea    -0x38(%ebp),%ecx
c0042043:	8b 55 f4             	mov    -0xc(%ebp),%edx
c0042046:	01 ca                	add    %ecx,%edx
c0042048:	0f b6 12             	movzbl (%edx),%edx
c004204b:	88 10                	mov    %dl,(%eax)
c004204d:	8b 45 f4             	mov    -0xc(%ebp),%eax
c0042050:	8d 50 ff             	lea    -0x1(%eax),%edx
c0042053:	89 55 f4             	mov    %edx,-0xc(%ebp)
c0042056:	85 c0                	test   %eax,%eax
c0042058:	7f dd                	jg     c0042037 <number+0x1f0>
c004205a:	eb 0c                	jmp    c0042068 <number+0x221>
c004205c:	8b 45 08             	mov    0x8(%ebp),%eax
c004205f:	8d 50 01             	lea    0x1(%eax),%edx
c0042062:	89 55 08             	mov    %edx,0x8(%ebp)
c0042065:	c6 00 20             	movb   $0x20,(%eax)
c0042068:	8b 45 14             	mov    0x14(%ebp),%eax
c004206b:	8d 50 ff             	lea    -0x1(%eax),%edx
c004206e:	89 55 14             	mov    %edx,0x14(%ebp)
c0042071:	85 c0                	test   %eax,%eax
c0042073:	7f e7                	jg     c004205c <number+0x215>
c0042075:	8b 45 08             	mov    0x8(%ebp),%eax
c0042078:	c9                   	leave  
c0042079:	c3                   	ret    

c004207a <vsprintf>:
c004207a:	55                   	push   %ebp
c004207b:	89 e5                	mov    %esp,%ebp
c004207d:	53                   	push   %ebx
c004207e:	83 ec 24             	sub    $0x24,%esp
c0042081:	e8 35 0c 00 00       	call   c0042cbb <__x86.get_pc_thunk.bx>
c0042086:	81 c3 4e 16 00 00    	add    $0x164e,%ebx
c004208c:	8b 45 08             	mov    0x8(%ebp),%eax
c004208f:	89 45 ec             	mov    %eax,-0x14(%ebp)
c0042092:	e9 ce 03 00 00       	jmp    c0042465 <.L101+0x46>
c0042097:	8b 45 0c             	mov    0xc(%ebp),%eax
c004209a:	0f b6 00             	movzbl (%eax),%eax
c004209d:	3c 25                	cmp    $0x25,%al
c004209f:	74 16                	je     c00420b7 <vsprintf+0x3d>
c00420a1:	8b 55 0c             	mov    0xc(%ebp),%edx
c00420a4:	8b 45 ec             	mov    -0x14(%ebp),%eax
c00420a7:	8d 48 01             	lea    0x1(%eax),%ecx
c00420aa:	89 4d ec             	mov    %ecx,-0x14(%ebp)
c00420ad:	0f b6 12             	movzbl (%edx),%edx
c00420b0:	88 10                	mov    %dl,(%eax)
c00420b2:	e9 a5 03 00 00       	jmp    c004245c <.L101+0x3d>
c00420b7:	c7 45 e4 00 00 00 00 	movl   $0x0,-0x1c(%ebp)
c00420be:	8b 45 0c             	mov    0xc(%ebp),%eax
c00420c1:	83 c0 01             	add    $0x1,%eax
c00420c4:	89 45 0c             	mov    %eax,0xc(%ebp)
c00420c7:	8b 45 0c             	mov    0xc(%ebp),%eax
c00420ca:	0f b6 00             	movzbl (%eax),%eax
c00420cd:	0f be c0             	movsbl %al,%eax
c00420d0:	83 e8 20             	sub    $0x20,%eax
c00420d3:	83 f8 10             	cmp    $0x10,%eax
c00420d6:	77 2c                	ja     c0042104 <.L87>
c00420d8:	c1 e0 02             	shl    $0x2,%eax
c00420db:	8b 84 18 18 fe ff ff 	mov    -0x1e8(%eax,%ebx,1),%eax
c00420e2:	01 d8                	add    %ebx,%eax
c00420e4:	ff e0                	jmp    *%eax

c00420e6 <.L92>:
c00420e6:	83 4d e4 10          	orl    $0x10,-0x1c(%ebp)
c00420ea:	eb d2                	jmp    c00420be <vsprintf+0x44>

c00420ec <.L91>:
c00420ec:	83 4d e4 04          	orl    $0x4,-0x1c(%ebp)
c00420f0:	eb cc                	jmp    c00420be <vsprintf+0x44>

c00420f2 <.L88>:
c00420f2:	83 4d e4 08          	orl    $0x8,-0x1c(%ebp)
c00420f6:	eb c6                	jmp    c00420be <vsprintf+0x44>

c00420f8 <.L90>:
c00420f8:	83 4d e4 20          	orl    $0x20,-0x1c(%ebp)
c00420fc:	eb c0                	jmp    c00420be <vsprintf+0x44>

c00420fe <.L93>:
c00420fe:	83 4d e4 01          	orl    $0x1,-0x1c(%ebp)
c0042102:	eb ba                	jmp    c00420be <vsprintf+0x44>

c0042104 <.L87>:
c0042104:	c7 45 e0 ff ff ff ff 	movl   $0xffffffff,-0x20(%ebp)
c004210b:	8b 45 0c             	mov    0xc(%ebp),%eax
c004210e:	0f b6 00             	movzbl (%eax),%eax
c0042111:	3c 2f                	cmp    $0x2f,%al
c0042113:	7e 1b                	jle    c0042130 <.L87+0x2c>
c0042115:	8b 45 0c             	mov    0xc(%ebp),%eax
c0042118:	0f b6 00             	movzbl (%eax),%eax
c004211b:	3c 39                	cmp    $0x39,%al
c004211d:	7f 11                	jg     c0042130 <.L87+0x2c>
c004211f:	8d 45 0c             	lea    0xc(%ebp),%eax
c0042122:	50                   	push   %eax
c0042123:	e8 3a fb ff ff       	call   c0041c62 <skip_atoi>
c0042128:	83 c4 04             	add    $0x4,%esp
c004212b:	89 45 e0             	mov    %eax,-0x20(%ebp)
c004212e:	eb 25                	jmp    c0042155 <.L87+0x51>
c0042130:	8b 45 0c             	mov    0xc(%ebp),%eax
c0042133:	0f b6 00             	movzbl (%eax),%eax
c0042136:	3c 2a                	cmp    $0x2a,%al
c0042138:	75 1b                	jne    c0042155 <.L87+0x51>
c004213a:	8b 45 10             	mov    0x10(%ebp),%eax
c004213d:	8d 50 04             	lea    0x4(%eax),%edx
c0042140:	89 55 10             	mov    %edx,0x10(%ebp)
c0042143:	8b 00                	mov    (%eax),%eax
c0042145:	89 45 e0             	mov    %eax,-0x20(%ebp)
c0042148:	83 7d e0 00          	cmpl   $0x0,-0x20(%ebp)
c004214c:	79 07                	jns    c0042155 <.L87+0x51>
c004214e:	f7 5d e0             	negl   -0x20(%ebp)
c0042151:	83 4d e4 10          	orl    $0x10,-0x1c(%ebp)
c0042155:	c7 45 dc ff ff ff ff 	movl   $0xffffffff,-0x24(%ebp)
c004215c:	8b 45 0c             	mov    0xc(%ebp),%eax
c004215f:	0f b6 00             	movzbl (%eax),%eax
c0042162:	3c 2e                	cmp    $0x2e,%al
c0042164:	75 53                	jne    c00421b9 <.L87+0xb5>
c0042166:	8b 45 0c             	mov    0xc(%ebp),%eax
c0042169:	83 c0 01             	add    $0x1,%eax
c004216c:	89 45 0c             	mov    %eax,0xc(%ebp)
c004216f:	8b 45 0c             	mov    0xc(%ebp),%eax
c0042172:	0f b6 00             	movzbl (%eax),%eax
c0042175:	3c 2f                	cmp    $0x2f,%al
c0042177:	7e 1b                	jle    c0042194 <.L87+0x90>
c0042179:	8b 45 0c             	mov    0xc(%ebp),%eax
c004217c:	0f b6 00             	movzbl (%eax),%eax
c004217f:	3c 39                	cmp    $0x39,%al
c0042181:	7f 11                	jg     c0042194 <.L87+0x90>
c0042183:	8d 45 0c             	lea    0xc(%ebp),%eax
c0042186:	50                   	push   %eax
c0042187:	e8 d6 fa ff ff       	call   c0041c62 <skip_atoi>
c004218c:	83 c4 04             	add    $0x4,%esp
c004218f:	89 45 dc             	mov    %eax,-0x24(%ebp)
c0042192:	eb 18                	jmp    c00421ac <.L87+0xa8>
c0042194:	8b 45 0c             	mov    0xc(%ebp),%eax
c0042197:	0f b6 00             	movzbl (%eax),%eax
c004219a:	3c 2a                	cmp    $0x2a,%al
c004219c:	75 0e                	jne    c00421ac <.L87+0xa8>
c004219e:	8b 45 10             	mov    0x10(%ebp),%eax
c00421a1:	8d 50 04             	lea    0x4(%eax),%edx
c00421a4:	89 55 10             	mov    %edx,0x10(%ebp)
c00421a7:	8b 00                	mov    (%eax),%eax
c00421a9:	89 45 dc             	mov    %eax,-0x24(%ebp)
c00421ac:	83 7d dc 00          	cmpl   $0x0,-0x24(%ebp)
c00421b0:	79 07                	jns    c00421b9 <.L87+0xb5>
c00421b2:	c7 45 dc 00 00 00 00 	movl   $0x0,-0x24(%ebp)
c00421b9:	8b 45 0c             	mov    0xc(%ebp),%eax
c00421bc:	0f b6 00             	movzbl (%eax),%eax
c00421bf:	3c 68                	cmp    $0x68,%al
c00421c1:	74 14                	je     c00421d7 <.L87+0xd3>
c00421c3:	8b 45 0c             	mov    0xc(%ebp),%eax
c00421c6:	0f b6 00             	movzbl (%eax),%eax
c00421c9:	3c 6c                	cmp    $0x6c,%al
c00421cb:	74 0a                	je     c00421d7 <.L87+0xd3>
c00421cd:	8b 45 0c             	mov    0xc(%ebp),%eax
c00421d0:	0f b6 00             	movzbl (%eax),%eax
c00421d3:	3c 4c                	cmp    $0x4c,%al
c00421d5:	75 09                	jne    c00421e0 <.L87+0xdc>
c00421d7:	8b 45 0c             	mov    0xc(%ebp),%eax
c00421da:	83 c0 01             	add    $0x1,%eax
c00421dd:	89 45 0c             	mov    %eax,0xc(%ebp)
c00421e0:	8b 45 0c             	mov    0xc(%ebp),%eax
c00421e3:	0f b6 00             	movzbl (%eax),%eax
c00421e6:	0f be c0             	movsbl %al,%eax
c00421e9:	83 e8 58             	sub    $0x58,%eax
c00421ec:	83 f8 20             	cmp    $0x20,%eax
c00421ef:	0f 87 2a 02 00 00    	ja     c004241f <.L101>
c00421f5:	c1 e0 02             	shl    $0x2,%eax
c00421f8:	8b 84 18 5c fe ff ff 	mov    -0x1a4(%eax,%ebx,1),%eax
c00421ff:	01 d8                	add    %ebx,%eax
c0042201:	ff e0                	jmp    *%eax

c0042203 <.L105>:
c0042203:	8b 45 e4             	mov    -0x1c(%ebp),%eax
c0042206:	83 e0 10             	and    $0x10,%eax
c0042209:	85 c0                	test   %eax,%eax
c004220b:	75 18                	jne    c0042225 <.L105+0x22>
c004220d:	eb 0c                	jmp    c004221b <.L105+0x18>
c004220f:	8b 45 ec             	mov    -0x14(%ebp),%eax
c0042212:	8d 50 01             	lea    0x1(%eax),%edx
c0042215:	89 55 ec             	mov    %edx,-0x14(%ebp)
c0042218:	c6 00 20             	movb   $0x20,(%eax)
c004221b:	83 6d e0 01          	subl   $0x1,-0x20(%ebp)
c004221f:	83 7d e0 00          	cmpl   $0x0,-0x20(%ebp)
c0042223:	7f ea                	jg     c004220f <.L105+0xc>
c0042225:	8b 45 10             	mov    0x10(%ebp),%eax
c0042228:	8d 50 04             	lea    0x4(%eax),%edx
c004222b:	89 55 10             	mov    %edx,0x10(%ebp)
c004222e:	8b 08                	mov    (%eax),%ecx
c0042230:	8b 45 ec             	mov    -0x14(%ebp),%eax
c0042233:	8d 50 01             	lea    0x1(%eax),%edx
c0042236:	89 55 ec             	mov    %edx,-0x14(%ebp)
c0042239:	89 ca                	mov    %ecx,%edx
c004223b:	88 10                	mov    %dl,(%eax)
c004223d:	eb 0c                	jmp    c004224b <.L105+0x48>
c004223f:	8b 45 ec             	mov    -0x14(%ebp),%eax
c0042242:	8d 50 01             	lea    0x1(%eax),%edx
c0042245:	89 55 ec             	mov    %edx,-0x14(%ebp)
c0042248:	c6 00 20             	movb   $0x20,(%eax)
c004224b:	83 6d e0 01          	subl   $0x1,-0x20(%ebp)
c004224f:	83 7d e0 00          	cmpl   $0x0,-0x20(%ebp)
c0042253:	7f ea                	jg     c004223f <.L105+0x3c>
c0042255:	e9 02 02 00 00       	jmp    c004245c <.L101+0x3d>

c004225a <.L110>:
c004225a:	8b 45 10             	mov    0x10(%ebp),%eax
c004225d:	8d 50 04             	lea    0x4(%eax),%edx
c0042260:	89 55 10             	mov    %edx,0x10(%ebp)
c0042263:	8b 00                	mov    (%eax),%eax
c0042265:	89 45 e8             	mov    %eax,-0x18(%ebp)
c0042268:	83 ec 0c             	sub    $0xc,%esp
c004226b:	ff 75 e8             	pushl  -0x18(%ebp)
c004226e:	e8 22 08 00 00       	call   c0042a95 <strlen>
c0042273:	83 c4 10             	add    $0x10,%esp
c0042276:	0f b7 c0             	movzwl %ax,%eax
c0042279:	89 45 f4             	mov    %eax,-0xc(%ebp)
c004227c:	83 7d dc 00          	cmpl   $0x0,-0x24(%ebp)
c0042280:	79 08                	jns    c004228a <.L110+0x30>
c0042282:	8b 45 f4             	mov    -0xc(%ebp),%eax
c0042285:	89 45 dc             	mov    %eax,-0x24(%ebp)
c0042288:	eb 0e                	jmp    c0042298 <.L110+0x3e>
c004228a:	8b 45 f4             	mov    -0xc(%ebp),%eax
c004228d:	3b 45 dc             	cmp    -0x24(%ebp),%eax
c0042290:	7e 06                	jle    c0042298 <.L110+0x3e>
c0042292:	8b 45 dc             	mov    -0x24(%ebp),%eax
c0042295:	89 45 f4             	mov    %eax,-0xc(%ebp)
c0042298:	8b 45 e4             	mov    -0x1c(%ebp),%eax
c004229b:	83 e0 10             	and    $0x10,%eax
c004229e:	85 c0                	test   %eax,%eax
c00422a0:	75 1c                	jne    c00422be <.L110+0x64>
c00422a2:	eb 0c                	jmp    c00422b0 <.L110+0x56>
c00422a4:	8b 45 ec             	mov    -0x14(%ebp),%eax
c00422a7:	8d 50 01             	lea    0x1(%eax),%edx
c00422aa:	89 55 ec             	mov    %edx,-0x14(%ebp)
c00422ad:	c6 00 20             	movb   $0x20,(%eax)
c00422b0:	8b 45 e0             	mov    -0x20(%ebp),%eax
c00422b3:	8d 50 ff             	lea    -0x1(%eax),%edx
c00422b6:	89 55 e0             	mov    %edx,-0x20(%ebp)
c00422b9:	39 45 f4             	cmp    %eax,-0xc(%ebp)
c00422bc:	7c e6                	jl     c00422a4 <.L110+0x4a>
c00422be:	c7 45 f0 00 00 00 00 	movl   $0x0,-0x10(%ebp)
c00422c5:	eb 1b                	jmp    c00422e2 <.L110+0x88>
c00422c7:	8b 55 e8             	mov    -0x18(%ebp),%edx
c00422ca:	8d 42 01             	lea    0x1(%edx),%eax
c00422cd:	89 45 e8             	mov    %eax,-0x18(%ebp)
c00422d0:	8b 45 ec             	mov    -0x14(%ebp),%eax
c00422d3:	8d 48 01             	lea    0x1(%eax),%ecx
c00422d6:	89 4d ec             	mov    %ecx,-0x14(%ebp)
c00422d9:	0f b6 12             	movzbl (%edx),%edx
c00422dc:	88 10                	mov    %dl,(%eax)
c00422de:	83 45 f0 01          	addl   $0x1,-0x10(%ebp)
c00422e2:	8b 45 f0             	mov    -0x10(%ebp),%eax
c00422e5:	3b 45 f4             	cmp    -0xc(%ebp),%eax
c00422e8:	7c dd                	jl     c00422c7 <.L110+0x6d>
c00422ea:	eb 0c                	jmp    c00422f8 <.L110+0x9e>
c00422ec:	8b 45 ec             	mov    -0x14(%ebp),%eax
c00422ef:	8d 50 01             	lea    0x1(%eax),%edx
c00422f2:	89 55 ec             	mov    %edx,-0x14(%ebp)
c00422f5:	c6 00 20             	movb   $0x20,(%eax)
c00422f8:	8b 45 e0             	mov    -0x20(%ebp),%eax
c00422fb:	8d 50 ff             	lea    -0x1(%eax),%edx
c00422fe:	89 55 e0             	mov    %edx,-0x20(%ebp)
c0042301:	39 45 f4             	cmp    %eax,-0xc(%ebp)
c0042304:	7c e6                	jl     c00422ec <.L110+0x92>
c0042306:	e9 51 01 00 00       	jmp    c004245c <.L101+0x3d>

c004230b <.L108>:
c004230b:	8b 45 10             	mov    0x10(%ebp),%eax
c004230e:	8d 50 04             	lea    0x4(%eax),%edx
c0042311:	89 55 10             	mov    %edx,0x10(%ebp)
c0042314:	8b 00                	mov    (%eax),%eax
c0042316:	83 ec 08             	sub    $0x8,%esp
c0042319:	ff 75 e4             	pushl  -0x1c(%ebp)
c004231c:	ff 75 dc             	pushl  -0x24(%ebp)
c004231f:	ff 75 e0             	pushl  -0x20(%ebp)
c0042322:	6a 08                	push   $0x8
c0042324:	50                   	push   %eax
c0042325:	ff 75 ec             	pushl  -0x14(%ebp)
c0042328:	e8 1a fb ff ff       	call   c0041e47 <number>
c004232d:	83 c4 20             	add    $0x20,%esp
c0042330:	89 45 ec             	mov    %eax,-0x14(%ebp)
c0042333:	e9 24 01 00 00       	jmp    c004245c <.L101+0x3d>

c0042338 <.L109>:
c0042338:	83 7d e0 ff          	cmpl   $0xffffffff,-0x20(%ebp)
c004233c:	75 0b                	jne    c0042349 <.L109+0x11>
c004233e:	c7 45 e0 08 00 00 00 	movl   $0x8,-0x20(%ebp)
c0042345:	83 4d e4 01          	orl    $0x1,-0x1c(%ebp)
c0042349:	8b 45 10             	mov    0x10(%ebp),%eax
c004234c:	8d 50 04             	lea    0x4(%eax),%edx
c004234f:	89 55 10             	mov    %edx,0x10(%ebp)
c0042352:	8b 00                	mov    (%eax),%eax
c0042354:	83 ec 08             	sub    $0x8,%esp
c0042357:	ff 75 e4             	pushl  -0x1c(%ebp)
c004235a:	ff 75 dc             	pushl  -0x24(%ebp)
c004235d:	ff 75 e0             	pushl  -0x20(%ebp)
c0042360:	6a 10                	push   $0x10
c0042362:	50                   	push   %eax
c0042363:	ff 75 ec             	pushl  -0x14(%ebp)
c0042366:	e8 dc fa ff ff       	call   c0041e47 <number>
c004236b:	83 c4 20             	add    $0x20,%esp
c004236e:	89 45 ec             	mov    %eax,-0x14(%ebp)
c0042371:	e9 e6 00 00 00       	jmp    c004245c <.L101+0x3d>

c0042376 <.L112>:
c0042376:	83 4d e4 40          	orl    $0x40,-0x1c(%ebp)

c004237a <.L102>:
c004237a:	8b 45 10             	mov    0x10(%ebp),%eax
c004237d:	8d 50 04             	lea    0x4(%eax),%edx
c0042380:	89 55 10             	mov    %edx,0x10(%ebp)
c0042383:	8b 00                	mov    (%eax),%eax
c0042385:	83 ec 08             	sub    $0x8,%esp
c0042388:	ff 75 e4             	pushl  -0x1c(%ebp)
c004238b:	ff 75 dc             	pushl  -0x24(%ebp)
c004238e:	ff 75 e0             	pushl  -0x20(%ebp)
c0042391:	6a 10                	push   $0x10
c0042393:	50                   	push   %eax
c0042394:	ff 75 ec             	pushl  -0x14(%ebp)
c0042397:	e8 ab fa ff ff       	call   c0041e47 <number>
c004239c:	83 c4 20             	add    $0x20,%esp
c004239f:	89 45 ec             	mov    %eax,-0x14(%ebp)
c00423a2:	e9 b5 00 00 00       	jmp    c004245c <.L101+0x3d>

c00423a7 <.L106>:
c00423a7:	83 4d e4 02          	orl    $0x2,-0x1c(%ebp)

c00423ab <.L111>:
c00423ab:	8b 45 10             	mov    0x10(%ebp),%eax
c00423ae:	8d 50 04             	lea    0x4(%eax),%edx
c00423b1:	89 55 10             	mov    %edx,0x10(%ebp)
c00423b4:	8b 00                	mov    (%eax),%eax
c00423b6:	83 ec 08             	sub    $0x8,%esp
c00423b9:	ff 75 e4             	pushl  -0x1c(%ebp)
c00423bc:	ff 75 dc             	pushl  -0x24(%ebp)
c00423bf:	ff 75 e0             	pushl  -0x20(%ebp)
c00423c2:	6a 0a                	push   $0xa
c00423c4:	50                   	push   %eax
c00423c5:	ff 75 ec             	pushl  -0x14(%ebp)
c00423c8:	e8 7a fa ff ff       	call   c0041e47 <number>
c00423cd:	83 c4 20             	add    $0x20,%esp
c00423d0:	89 45 ec             	mov    %eax,-0x14(%ebp)
c00423d3:	e9 84 00 00 00       	jmp    c004245c <.L101+0x3d>

c00423d8 <.L104>:
c00423d8:	8b 45 10             	mov    0x10(%ebp),%eax
c00423db:	8d 50 04             	lea    0x4(%eax),%edx
c00423de:	89 55 10             	mov    %edx,0x10(%ebp)
c00423e1:	8b 00                	mov    (%eax),%eax
c00423e3:	83 ec 08             	sub    $0x8,%esp
c00423e6:	ff 75 e4             	pushl  -0x1c(%ebp)
c00423e9:	ff 75 dc             	pushl  -0x24(%ebp)
c00423ec:	ff 75 e0             	pushl  -0x20(%ebp)
c00423ef:	6a 02                	push   $0x2
c00423f1:	50                   	push   %eax
c00423f2:	ff 75 ec             	pushl  -0x14(%ebp)
c00423f5:	e8 4d fa ff ff       	call   c0041e47 <number>
c00423fa:	83 c4 20             	add    $0x20,%esp
c00423fd:	89 45 ec             	mov    %eax,-0x14(%ebp)
c0042400:	eb 5a                	jmp    c004245c <.L101+0x3d>

c0042402 <.L107>:
c0042402:	8b 45 10             	mov    0x10(%ebp),%eax
c0042405:	8d 50 04             	lea    0x4(%eax),%edx
c0042408:	89 55 10             	mov    %edx,0x10(%ebp)
c004240b:	8b 00                	mov    (%eax),%eax
c004240d:	89 45 d8             	mov    %eax,-0x28(%ebp)
c0042410:	8b 55 ec             	mov    -0x14(%ebp),%edx
c0042413:	8b 45 08             	mov    0x8(%ebp),%eax
c0042416:	29 c2                	sub    %eax,%edx
c0042418:	8b 45 d8             	mov    -0x28(%ebp),%eax
c004241b:	89 10                	mov    %edx,(%eax)
c004241d:	eb 3d                	jmp    c004245c <.L101+0x3d>

c004241f <.L101>:
c004241f:	8b 45 0c             	mov    0xc(%ebp),%eax
c0042422:	0f b6 00             	movzbl (%eax),%eax
c0042425:	3c 25                	cmp    $0x25,%al
c0042427:	74 0c                	je     c0042435 <.L101+0x16>
c0042429:	8b 45 ec             	mov    -0x14(%ebp),%eax
c004242c:	8d 50 01             	lea    0x1(%eax),%edx
c004242f:	89 55 ec             	mov    %edx,-0x14(%ebp)
c0042432:	c6 00 25             	movb   $0x25,(%eax)
c0042435:	8b 45 0c             	mov    0xc(%ebp),%eax
c0042438:	0f b6 00             	movzbl (%eax),%eax
c004243b:	84 c0                	test   %al,%al
c004243d:	74 13                	je     c0042452 <.L101+0x33>
c004243f:	8b 55 0c             	mov    0xc(%ebp),%edx
c0042442:	8b 45 ec             	mov    -0x14(%ebp),%eax
c0042445:	8d 48 01             	lea    0x1(%eax),%ecx
c0042448:	89 4d ec             	mov    %ecx,-0x14(%ebp)
c004244b:	0f b6 12             	movzbl (%edx),%edx
c004244e:	88 10                	mov    %dl,(%eax)
c0042450:	eb 09                	jmp    c004245b <.L101+0x3c>
c0042452:	8b 45 0c             	mov    0xc(%ebp),%eax
c0042455:	83 e8 01             	sub    $0x1,%eax
c0042458:	89 45 0c             	mov    %eax,0xc(%ebp)
c004245b:	90                   	nop
c004245c:	8b 45 0c             	mov    0xc(%ebp),%eax
c004245f:	83 c0 01             	add    $0x1,%eax
c0042462:	89 45 0c             	mov    %eax,0xc(%ebp)
c0042465:	8b 45 0c             	mov    0xc(%ebp),%eax
c0042468:	0f b6 00             	movzbl (%eax),%eax
c004246b:	84 c0                	test   %al,%al
c004246d:	0f 85 24 fc ff ff    	jne    c0042097 <vsprintf+0x1d>
c0042473:	8b 45 ec             	mov    -0x14(%ebp),%eax
c0042476:	c6 00 00             	movb   $0x0,(%eax)
c0042479:	8b 55 ec             	mov    -0x14(%ebp),%edx
c004247c:	8b 45 08             	mov    0x8(%ebp),%eax
c004247f:	29 c2                	sub    %eax,%edx
c0042481:	89 d0                	mov    %edx,%eax
c0042483:	8b 5d fc             	mov    -0x4(%ebp),%ebx
c0042486:	c9                   	leave  
c0042487:	c3                   	ret    

c0042488 <printk_int>:
c0042488:	55                   	push   %ebp
c0042489:	89 e5                	mov    %esp,%ebp
c004248b:	83 ec 18             	sub    $0x18,%esp
c004248e:	e8 24 08 00 00       	call   c0042cb7 <__x86.get_pc_thunk.ax>
c0042493:	05 41 12 00 00       	add    $0x1241,%eax
c0042498:	6a 0a                	push   $0xa
c004249a:	ff 75 08             	pushl  0x8(%ebp)
c004249d:	8d 45 e8             	lea    -0x18(%ebp),%eax
c00424a0:	50                   	push   %eax
c00424a1:	e8 20 f8 ff ff       	call   c0041cc6 <itoa>
c00424a6:	83 c4 0c             	add    $0xc,%esp
c00424a9:	83 ec 0c             	sub    $0xc,%esp
c00424ac:	8d 45 e8             	lea    -0x18(%ebp),%eax
c00424af:	50                   	push   %eax
c00424b0:	e8 d8 f8 ff ff       	call   c0041d8d <printk>
c00424b5:	83 c4 10             	add    $0x10,%esp
c00424b8:	90                   	nop
c00424b9:	c9                   	leave  
c00424ba:	c3                   	ret    

c00424bb <printk_hex>:
c00424bb:	55                   	push   %ebp
c00424bc:	89 e5                	mov    %esp,%ebp
c00424be:	83 ec 18             	sub    $0x18,%esp
c00424c1:	e8 f1 07 00 00       	call   c0042cb7 <__x86.get_pc_thunk.ax>
c00424c6:	05 0e 12 00 00       	add    $0x120e,%eax
c00424cb:	6a 10                	push   $0x10
c00424cd:	ff 75 08             	pushl  0x8(%ebp)
c00424d0:	8d 45 e8             	lea    -0x18(%ebp),%eax
c00424d3:	50                   	push   %eax
c00424d4:	e8 ed f7 ff ff       	call   c0041cc6 <itoa>
c00424d9:	83 c4 0c             	add    $0xc,%esp
c00424dc:	83 ec 0c             	sub    $0xc,%esp
c00424df:	8d 45 e8             	lea    -0x18(%ebp),%eax
c00424e2:	50                   	push   %eax
c00424e3:	e8 a5 f8 ff ff       	call   c0041d8d <printk>
c00424e8:	83 c4 10             	add    $0x10,%esp
c00424eb:	90                   	nop
c00424ec:	c9                   	leave  
c00424ed:	c3                   	ret    

c00424ee <printk_int_colour>:
c00424ee:	55                   	push   %ebp
c00424ef:	89 e5                	mov    %esp,%ebp
c00424f1:	83 ec 18             	sub    $0x18,%esp
c00424f4:	e8 be 07 00 00       	call   c0042cb7 <__x86.get_pc_thunk.ax>
c00424f9:	05 db 11 00 00       	add    $0x11db,%eax
c00424fe:	6a 0a                	push   $0xa
c0042500:	ff 75 08             	pushl  0x8(%ebp)
c0042503:	8d 45 e8             	lea    -0x18(%ebp),%eax
c0042506:	50                   	push   %eax
c0042507:	e8 ba f7 ff ff       	call   c0041cc6 <itoa>
c004250c:	83 c4 0c             	add    $0xc,%esp
c004250f:	83 ec 04             	sub    $0x4,%esp
c0042512:	8d 45 e8             	lea    -0x18(%ebp),%eax
c0042515:	50                   	push   %eax
c0042516:	ff 75 10             	pushl  0x10(%ebp)
c0042519:	ff 75 0c             	pushl  0xc(%ebp)
c004251c:	e8 c6 f8 ff ff       	call   c0041de7 <printk_color>
c0042521:	83 c4 10             	add    $0x10,%esp
c0042524:	90                   	nop
c0042525:	c9                   	leave  
c0042526:	c3                   	ret    

c0042527 <mem_seg_desc_copy>:
c0042527:	55                   	push   %ebp
c0042528:	89 e5                	mov    %esp,%ebp
c004252a:	56                   	push   %esi
c004252b:	53                   	push   %ebx
c004252c:	83 ec 10             	sub    $0x10,%esp
c004252f:	e8 83 07 00 00       	call   c0042cb7 <__x86.get_pc_thunk.ax>
c0042534:	05 a0 11 00 00       	add    $0x11a0,%eax
c0042539:	c6 45 f7 00          	movb   $0x0,-0x9(%ebp)
c004253d:	e9 18 01 00 00       	jmp    c004265a <mem_seg_desc_copy+0x133>
c0042542:	0f b6 4d f7          	movzbl -0x9(%ebp),%ecx
c0042546:	89 ca                	mov    %ecx,%edx
c0042548:	c1 e2 02             	shl    $0x2,%edx
c004254b:	01 ca                	add    %ecx,%edx
c004254d:	c1 e2 02             	shl    $0x2,%edx
c0042550:	89 d1                	mov    %edx,%ecx
c0042552:	c7 c2 60 36 04 c0    	mov    $0xc0043660,%edx
c0042558:	8b 12                	mov    (%edx),%edx
c004255a:	01 ca                	add    %ecx,%edx
c004255c:	0f b6 4d f7          	movzbl -0x9(%ebp),%ecx
c0042560:	8b 1a                	mov    (%edx),%ebx
c0042562:	c7 c6 60 ac 04 c0    	mov    $0xc004ac60,%esi
c0042568:	89 ca                	mov    %ecx,%edx
c004256a:	c1 e2 02             	shl    $0x2,%edx
c004256d:	01 ca                	add    %ecx,%edx
c004256f:	c1 e2 02             	shl    $0x2,%edx
c0042572:	01 f2                	add    %esi,%edx
c0042574:	89 1a                	mov    %ebx,(%edx)
c0042576:	0f b6 4d f7          	movzbl -0x9(%ebp),%ecx
c004257a:	89 ca                	mov    %ecx,%edx
c004257c:	c1 e2 02             	shl    $0x2,%edx
c004257f:	01 ca                	add    %ecx,%edx
c0042581:	c1 e2 02             	shl    $0x2,%edx
c0042584:	89 d1                	mov    %edx,%ecx
c0042586:	c7 c2 60 36 04 c0    	mov    $0xc0043660,%edx
c004258c:	8b 12                	mov    (%edx),%edx
c004258e:	01 ca                	add    %ecx,%edx
c0042590:	0f b6 4d f7          	movzbl -0x9(%ebp),%ecx
c0042594:	8b 5a 04             	mov    0x4(%edx),%ebx
c0042597:	c7 c6 60 ac 04 c0    	mov    $0xc004ac60,%esi
c004259d:	89 ca                	mov    %ecx,%edx
c004259f:	c1 e2 02             	shl    $0x2,%edx
c00425a2:	01 ca                	add    %ecx,%edx
c00425a4:	c1 e2 02             	shl    $0x2,%edx
c00425a7:	01 f2                	add    %esi,%edx
c00425a9:	89 5a 04             	mov    %ebx,0x4(%edx)
c00425ac:	0f b6 4d f7          	movzbl -0x9(%ebp),%ecx
c00425b0:	89 ca                	mov    %ecx,%edx
c00425b2:	c1 e2 02             	shl    $0x2,%edx
c00425b5:	01 ca                	add    %ecx,%edx
c00425b7:	c1 e2 02             	shl    $0x2,%edx
c00425ba:	89 d1                	mov    %edx,%ecx
c00425bc:	c7 c2 60 36 04 c0    	mov    $0xc0043660,%edx
c00425c2:	8b 12                	mov    (%edx),%edx
c00425c4:	01 ca                	add    %ecx,%edx
c00425c6:	0f b6 4d f7          	movzbl -0x9(%ebp),%ecx
c00425ca:	8b 5a 08             	mov    0x8(%edx),%ebx
c00425cd:	c7 c6 60 ac 04 c0    	mov    $0xc004ac60,%esi
c00425d3:	89 ca                	mov    %ecx,%edx
c00425d5:	c1 e2 02             	shl    $0x2,%edx
c00425d8:	01 ca                	add    %ecx,%edx
c00425da:	c1 e2 02             	shl    $0x2,%edx
c00425dd:	01 f2                	add    %esi,%edx
c00425df:	89 5a 08             	mov    %ebx,0x8(%edx)
c00425e2:	0f b6 4d f7          	movzbl -0x9(%ebp),%ecx
c00425e6:	89 ca                	mov    %ecx,%edx
c00425e8:	c1 e2 02             	shl    $0x2,%edx
c00425eb:	01 ca                	add    %ecx,%edx
c00425ed:	c1 e2 02             	shl    $0x2,%edx
c00425f0:	89 d1                	mov    %edx,%ecx
c00425f2:	c7 c2 60 36 04 c0    	mov    $0xc0043660,%edx
c00425f8:	8b 12                	mov    (%edx),%edx
c00425fa:	01 ca                	add    %ecx,%edx
c00425fc:	0f b6 4d f7          	movzbl -0x9(%ebp),%ecx
c0042600:	8b 5a 0c             	mov    0xc(%edx),%ebx
c0042603:	c7 c6 60 ac 04 c0    	mov    $0xc004ac60,%esi
c0042609:	89 ca                	mov    %ecx,%edx
c004260b:	c1 e2 02             	shl    $0x2,%edx
c004260e:	01 ca                	add    %ecx,%edx
c0042610:	c1 e2 02             	shl    $0x2,%edx
c0042613:	01 f2                	add    %esi,%edx
c0042615:	89 5a 0c             	mov    %ebx,0xc(%edx)
c0042618:	0f b6 4d f7          	movzbl -0x9(%ebp),%ecx
c004261c:	89 ca                	mov    %ecx,%edx
c004261e:	c1 e2 02             	shl    $0x2,%edx
c0042621:	01 ca                	add    %ecx,%edx
c0042623:	c1 e2 02             	shl    $0x2,%edx
c0042626:	89 d1                	mov    %edx,%ecx
c0042628:	c7 c2 60 36 04 c0    	mov    $0xc0043660,%edx
c004262e:	8b 12                	mov    (%edx),%edx
c0042630:	01 ca                	add    %ecx,%edx
c0042632:	0f b6 4d f7          	movzbl -0x9(%ebp),%ecx
c0042636:	8b 5a 10             	mov    0x10(%edx),%ebx
c0042639:	c7 c6 60 ac 04 c0    	mov    $0xc004ac60,%esi
c004263f:	89 ca                	mov    %ecx,%edx
c0042641:	c1 e2 02             	shl    $0x2,%edx
c0042644:	01 ca                	add    %ecx,%edx
c0042646:	c1 e2 02             	shl    $0x2,%edx
c0042649:	01 f2                	add    %esi,%edx
c004264b:	83 c2 10             	add    $0x10,%edx
c004264e:	89 1a                	mov    %ebx,(%edx)
c0042650:	0f b6 55 f7          	movzbl -0x9(%ebp),%edx
c0042654:	83 c2 01             	add    $0x1,%edx
c0042657:	88 55 f7             	mov    %dl,-0x9(%ebp)
c004265a:	0f b6 4d f7          	movzbl -0x9(%ebp),%ecx
c004265e:	c7 c2 64 36 04 c0    	mov    $0xc0043664,%edx
c0042664:	8b 12                	mov    (%edx),%edx
c0042666:	39 d1                	cmp    %edx,%ecx
c0042668:	0f 82 d4 fe ff ff    	jb     c0042542 <mem_seg_desc_copy+0x1b>
c004266e:	90                   	nop
c004266f:	83 c4 10             	add    $0x10,%esp
c0042672:	5b                   	pop    %ebx
c0042673:	5e                   	pop    %esi
c0042674:	5d                   	pop    %ebp
c0042675:	c3                   	ret    

c0042676 <mem_seg_desc_display>:
c0042676:	55                   	push   %ebp
c0042677:	89 e5                	mov    %esp,%ebp
c0042679:	57                   	push   %edi
c004267a:	56                   	push   %esi
c004267b:	53                   	push   %ebx
c004267c:	83 ec 2c             	sub    $0x2c,%esp
c004267f:	e8 37 06 00 00       	call   c0042cbb <__x86.get_pc_thunk.bx>
c0042684:	81 c3 50 10 00 00    	add    $0x1050,%ebx
c004268a:	83 ec 04             	sub    $0x4,%esp
c004268d:	8d 83 e0 fe ff ff    	lea    -0x120(%ebx),%eax
c0042693:	50                   	push   %eax
c0042694:	6a 02                	push   $0x2
c0042696:	6a 00                	push   $0x0
c0042698:	e8 4a f7 ff ff       	call   c0041de7 <printk_color>
c004269d:	83 c4 10             	add    $0x10,%esp
c00426a0:	c6 45 e7 00          	movb   $0x0,-0x19(%ebp)
c00426a4:	e9 aa 00 00 00       	jmp    c0042753 <mem_seg_desc_display+0xdd>
c00426a9:	0f b6 55 e7          	movzbl -0x19(%ebp),%edx
c00426ad:	c7 c1 60 ac 04 c0    	mov    $0xc004ac60,%ecx
c00426b3:	89 d0                	mov    %edx,%eax
c00426b5:	c1 e0 02             	shl    $0x2,%eax
c00426b8:	01 d0                	add    %edx,%eax
c00426ba:	c1 e0 02             	shl    $0x2,%eax
c00426bd:	01 c8                	add    %ecx,%eax
c00426bf:	83 c0 10             	add    $0x10,%eax
c00426c2:	8b 00                	mov    (%eax),%eax
c00426c4:	89 45 d4             	mov    %eax,-0x2c(%ebp)
c00426c7:	0f b6 55 e7          	movzbl -0x19(%ebp),%edx
c00426cb:	c7 c1 60 ac 04 c0    	mov    $0xc004ac60,%ecx
c00426d1:	89 d0                	mov    %edx,%eax
c00426d3:	c1 e0 02             	shl    $0x2,%eax
c00426d6:	01 d0                	add    %edx,%eax
c00426d8:	c1 e0 02             	shl    $0x2,%eax
c00426db:	01 c8                	add    %ecx,%eax
c00426dd:	8b 70 08             	mov    0x8(%eax),%esi
c00426e0:	89 75 d0             	mov    %esi,-0x30(%ebp)
c00426e3:	0f b6 55 e7          	movzbl -0x19(%ebp),%edx
c00426e7:	c7 c1 60 ac 04 c0    	mov    $0xc004ac60,%ecx
c00426ed:	89 d0                	mov    %edx,%eax
c00426ef:	c1 e0 02             	shl    $0x2,%eax
c00426f2:	01 d0                	add    %edx,%eax
c00426f4:	c1 e0 02             	shl    $0x2,%eax
c00426f7:	01 c8                	add    %ecx,%eax
c00426f9:	8b 78 0c             	mov    0xc(%eax),%edi
c00426fc:	0f b6 55 e7          	movzbl -0x19(%ebp),%edx
c0042700:	c7 c1 60 ac 04 c0    	mov    $0xc004ac60,%ecx
c0042706:	89 d0                	mov    %edx,%eax
c0042708:	c1 e0 02             	shl    $0x2,%eax
c004270b:	01 d0                	add    %edx,%eax
c004270d:	c1 e0 02             	shl    $0x2,%eax
c0042710:	01 c8                	add    %ecx,%eax
c0042712:	8b 08                	mov    (%eax),%ecx
c0042714:	0f b6 55 e7          	movzbl -0x19(%ebp),%edx
c0042718:	c7 c6 60 ac 04 c0    	mov    $0xc004ac60,%esi
c004271e:	89 d0                	mov    %edx,%eax
c0042720:	c1 e0 02             	shl    $0x2,%eax
c0042723:	01 d0                	add    %edx,%eax
c0042725:	c1 e0 02             	shl    $0x2,%eax
c0042728:	01 f0                	add    %esi,%eax
c004272a:	8b 40 04             	mov    0x4(%eax),%eax
c004272d:	ff 75 d4             	pushl  -0x2c(%ebp)
c0042730:	ff 75 d0             	pushl  -0x30(%ebp)
c0042733:	57                   	push   %edi
c0042734:	51                   	push   %ecx
c0042735:	50                   	push   %eax
c0042736:	8d 83 00 ff ff ff    	lea    -0x100(%ebx),%eax
c004273c:	50                   	push   %eax
c004273d:	6a 03                	push   $0x3
c004273f:	6a 00                	push   $0x0
c0042741:	e8 a1 f6 ff ff       	call   c0041de7 <printk_color>
c0042746:	83 c4 20             	add    $0x20,%esp
c0042749:	0f b6 45 e7          	movzbl -0x19(%ebp),%eax
c004274d:	83 c0 01             	add    $0x1,%eax
c0042750:	88 45 e7             	mov    %al,-0x19(%ebp)
c0042753:	0f b6 55 e7          	movzbl -0x19(%ebp),%edx
c0042757:	c7 c0 64 36 04 c0    	mov    $0xc0043664,%eax
c004275d:	8b 00                	mov    (%eax),%eax
c004275f:	39 c2                	cmp    %eax,%edx
c0042761:	0f 82 42 ff ff ff    	jb     c00426a9 <mem_seg_desc_display+0x33>
c0042767:	90                   	nop
c0042768:	8d 65 f4             	lea    -0xc(%ebp),%esp
c004276b:	5b                   	pop    %ebx
c004276c:	5e                   	pop    %esi
c004276d:	5f                   	pop    %edi
c004276e:	5d                   	pop    %ebp
c004276f:	c3                   	ret    

c0042770 <init_phy_memoey>:
c0042770:	55                   	push   %ebp
c0042771:	89 e5                	mov    %esp,%ebp
c0042773:	53                   	push   %ebx
c0042774:	83 ec 24             	sub    $0x24,%esp
c0042777:	e8 3f 05 00 00       	call   c0042cbb <__x86.get_pc_thunk.bx>
c004277c:	81 c3 58 0f 00 00    	add    $0xf58,%ebx
c0042782:	c7 45 f0 00 04 03 00 	movl   $0x30400,-0x10(%ebp)
c0042789:	ff 75 f0             	pushl  -0x10(%ebp)
c004278c:	8d 83 39 ff ff ff    	lea    -0xc7(%ebx),%eax
c0042792:	50                   	push   %eax
c0042793:	6a 04                	push   $0x4
c0042795:	6a 07                	push   $0x7
c0042797:	e8 4b f6 ff ff       	call   c0041de7 <printk_color>
c004279c:	83 c4 10             	add    $0x10,%esp
c004279f:	c7 45 ec 00 00 10 00 	movl   $0x100000,-0x14(%ebp)
c00427a6:	c7 45 e8 00 00 ef 01 	movl   $0x1ef0000,-0x18(%ebp)
c00427ad:	8b 55 ec             	mov    -0x14(%ebp),%edx
c00427b0:	8b 45 e8             	mov    -0x18(%ebp),%eax
c00427b3:	01 d0                	add    %edx,%eax
c00427b5:	89 45 e4             	mov    %eax,-0x1c(%ebp)
c00427b8:	c7 83 30 68 00 00 00 	movl   $0x0,0x6830(%ebx)
c00427bf:	00 00 00 
c00427c2:	c7 45 f4 00 00 00 00 	movl   $0x0,-0xc(%ebp)
c00427c9:	eb 16                	jmp    c00427e1 <init_phy_memoey+0x71>
c00427cb:	8b 83 30 68 00 00    	mov    0x6830(%ebx),%eax
c00427d1:	83 c0 01             	add    $0x1,%eax
c00427d4:	89 83 30 68 00 00    	mov    %eax,0x6830(%ebx)
c00427da:	81 45 f4 00 10 00 00 	addl   $0x1000,-0xc(%ebp)
c00427e1:	8b 45 f4             	mov    -0xc(%ebp),%eax
c00427e4:	3b 45 e8             	cmp    -0x18(%ebp),%eax
c00427e7:	72 e2                	jb     c00427cb <init_phy_memoey+0x5b>
c00427e9:	8b 83 30 68 00 00    	mov    0x6830(%ebx),%eax
c00427ef:	50                   	push   %eax
c00427f0:	8d 83 56 ff ff ff    	lea    -0xaa(%ebx),%eax
c00427f6:	50                   	push   %eax
c00427f7:	6a 04                	push   $0x4
c00427f9:	6a 07                	push   $0x7
c00427fb:	e8 e7 f5 ff ff       	call   c0041de7 <printk_color>
c0042800:	83 c4 10             	add    $0x10,%esp
c0042803:	90                   	nop
c0042804:	8b 5d fc             	mov    -0x4(%ebp),%ebx
c0042807:	c9                   	leave  
c0042808:	c3                   	ret    

c0042809 <outb>:
c0042809:	55                   	push   %ebp
c004280a:	89 e5                	mov    %esp,%ebp
c004280c:	83 ec 08             	sub    $0x8,%esp
c004280f:	e8 a3 04 00 00       	call   c0042cb7 <__x86.get_pc_thunk.ax>
c0042814:	05 c0 0e 00 00       	add    $0xec0,%eax
c0042819:	8b 55 08             	mov    0x8(%ebp),%edx
c004281c:	8b 45 0c             	mov    0xc(%ebp),%eax
c004281f:	66 89 55 fc          	mov    %dx,-0x4(%ebp)
c0042823:	88 45 f8             	mov    %al,-0x8(%ebp)
c0042826:	0f b7 55 fc          	movzwl -0x4(%ebp),%edx
c004282a:	0f b6 45 f8          	movzbl -0x8(%ebp),%eax
c004282e:	ee                   	out    %al,(%dx)
c004282f:	90                   	nop
c0042830:	c9                   	leave  
c0042831:	c3                   	ret    

c0042832 <inb>:
c0042832:	55                   	push   %ebp
c0042833:	89 e5                	mov    %esp,%ebp
c0042835:	83 ec 14             	sub    $0x14,%esp
c0042838:	e8 7a 04 00 00       	call   c0042cb7 <__x86.get_pc_thunk.ax>
c004283d:	05 97 0e 00 00       	add    $0xe97,%eax
c0042842:	8b 45 08             	mov    0x8(%ebp),%eax
c0042845:	66 89 45 ec          	mov    %ax,-0x14(%ebp)
c0042849:	0f b7 45 ec          	movzwl -0x14(%ebp),%eax
c004284d:	89 c2                	mov    %eax,%edx
c004284f:	ec                   	in     (%dx),%al
c0042850:	88 45 ff             	mov    %al,-0x1(%ebp)
c0042853:	0f b6 45 ff          	movzbl -0x1(%ebp),%eax
c0042857:	c9                   	leave  
c0042858:	c3                   	ret    

c0042859 <inw>:
c0042859:	55                   	push   %ebp
c004285a:	89 e5                	mov    %esp,%ebp
c004285c:	83 ec 14             	sub    $0x14,%esp
c004285f:	e8 53 04 00 00       	call   c0042cb7 <__x86.get_pc_thunk.ax>
c0042864:	05 70 0e 00 00       	add    $0xe70,%eax
c0042869:	8b 45 08             	mov    0x8(%ebp),%eax
c004286c:	66 89 45 ec          	mov    %ax,-0x14(%ebp)
c0042870:	0f b7 45 ec          	movzwl -0x14(%ebp),%eax
c0042874:	89 c2                	mov    %eax,%edx
c0042876:	66 ed                	in     (%dx),%ax
c0042878:	66 89 45 fe          	mov    %ax,-0x2(%ebp)
c004287c:	0f b7 45 fe          	movzwl -0x2(%ebp),%eax
c0042880:	c9                   	leave  
c0042881:	c3                   	ret    

c0042882 <insl>:
c0042882:	55                   	push   %ebp
c0042883:	89 e5                	mov    %esp,%ebp
c0042885:	57                   	push   %edi
c0042886:	e8 2c 04 00 00       	call   c0042cb7 <__x86.get_pc_thunk.ax>
c004288b:	05 49 0e 00 00       	add    $0xe49,%eax
c0042890:	fc                   	cld    
c0042891:	8b 55 08             	mov    0x8(%ebp),%edx
c0042894:	8b 45 0c             	mov    0xc(%ebp),%eax
c0042897:	8b 4d 10             	mov    0x10(%ebp),%ecx
c004289a:	89 c7                	mov    %eax,%edi
c004289c:	f2 6d                	repnz insl (%dx),%es:(%edi)
c004289e:	89 ca                	mov    %ecx,%edx
c00428a0:	89 f8                	mov    %edi,%eax
c00428a2:	89 45 0c             	mov    %eax,0xc(%ebp)
c00428a5:	89 55 10             	mov    %edx,0x10(%ebp)
c00428a8:	90                   	nop
c00428a9:	5f                   	pop    %edi
c00428aa:	5d                   	pop    %ebp
c00428ab:	c3                   	ret    

c00428ac <outsl>:
c00428ac:	55                   	push   %ebp
c00428ad:	89 e5                	mov    %esp,%ebp
c00428af:	57                   	push   %edi
c00428b0:	e8 02 04 00 00       	call   c0042cb7 <__x86.get_pc_thunk.ax>
c00428b5:	05 1f 0e 00 00       	add    $0xe1f,%eax
c00428ba:	fc                   	cld    
c00428bb:	8b 55 08             	mov    0x8(%ebp),%edx
c00428be:	8b 45 0c             	mov    0xc(%ebp),%eax
c00428c1:	8b 4d 10             	mov    0x10(%ebp),%ecx
c00428c4:	89 c7                	mov    %eax,%edi
c00428c6:	f2 6f                	repnz outsl %ds:(%esi),(%dx)
c00428c8:	89 ca                	mov    %ecx,%edx
c00428ca:	89 f8                	mov    %edi,%eax
c00428cc:	89 45 0c             	mov    %eax,0xc(%ebp)
c00428cf:	89 55 10             	mov    %edx,0x10(%ebp)
c00428d2:	90                   	nop
c00428d3:	5f                   	pop    %edi
c00428d4:	5d                   	pop    %ebp
c00428d5:	c3                   	ret    

c00428d6 <enable_int>:
c00428d6:	55                   	push   %ebp
c00428d7:	89 e5                	mov    %esp,%ebp
c00428d9:	e8 d9 03 00 00       	call   c0042cb7 <__x86.get_pc_thunk.ax>
c00428de:	05 f6 0d 00 00       	add    $0xdf6,%eax
c00428e3:	fb                   	sti    
c00428e4:	90                   	nop
c00428e5:	5d                   	pop    %ebp
c00428e6:	c3                   	ret    

c00428e7 <disable_int>:
c00428e7:	55                   	push   %ebp
c00428e8:	89 e5                	mov    %esp,%ebp
c00428ea:	e8 c8 03 00 00       	call   c0042cb7 <__x86.get_pc_thunk.ax>
c00428ef:	05 e5 0d 00 00       	add    $0xde5,%eax
c00428f4:	fa                   	cli    
c00428f5:	90                   	nop
c00428f6:	5d                   	pop    %ebp
c00428f7:	c3                   	ret    

c00428f8 <cpu_hlt>:
c00428f8:	55                   	push   %ebp
c00428f9:	89 e5                	mov    %esp,%ebp
c00428fb:	e8 b7 03 00 00       	call   c0042cb7 <__x86.get_pc_thunk.ax>
c0042900:	05 d4 0d 00 00       	add    $0xdd4,%eax
c0042905:	f4                   	hlt    
c0042906:	90                   	nop
c0042907:	5d                   	pop    %ebp
c0042908:	c3                   	ret    

c0042909 <memcpy>:
c0042909:	55                   	push   %ebp
c004290a:	89 e5                	mov    %esp,%ebp
c004290c:	e8 a6 03 00 00       	call   c0042cb7 <__x86.get_pc_thunk.ax>
c0042911:	05 c3 0d 00 00       	add    $0xdc3,%eax
c0042916:	eb 1b                	jmp    c0042933 <memcpy+0x2a>
c0042918:	8b 55 0c             	mov    0xc(%ebp),%edx
c004291b:	8d 42 01             	lea    0x1(%edx),%eax
c004291e:	89 45 0c             	mov    %eax,0xc(%ebp)
c0042921:	8b 45 08             	mov    0x8(%ebp),%eax
c0042924:	8d 48 01             	lea    0x1(%eax),%ecx
c0042927:	89 4d 08             	mov    %ecx,0x8(%ebp)
c004292a:	0f b6 12             	movzbl (%edx),%edx
c004292d:	88 10                	mov    %dl,(%eax)
c004292f:	83 6d 10 01          	subl   $0x1,0x10(%ebp)
c0042933:	83 7d 10 00          	cmpl   $0x0,0x10(%ebp)
c0042937:	75 df                	jne    c0042918 <memcpy+0xf>
c0042939:	90                   	nop
c004293a:	5d                   	pop    %ebp
c004293b:	c3                   	ret    

c004293c <memset>:
c004293c:	55                   	push   %ebp
c004293d:	89 e5                	mov    %esp,%ebp
c004293f:	83 ec 14             	sub    $0x14,%esp
c0042942:	e8 70 03 00 00       	call   c0042cb7 <__x86.get_pc_thunk.ax>
c0042947:	05 8d 0d 00 00       	add    $0xd8d,%eax
c004294c:	8b 45 0c             	mov    0xc(%ebp),%eax
c004294f:	88 45 ec             	mov    %al,-0x14(%ebp)
c0042952:	8b 45 08             	mov    0x8(%ebp),%eax
c0042955:	89 45 fc             	mov    %eax,-0x4(%ebp)
c0042958:	eb 13                	jmp    c004296d <memset+0x31>
c004295a:	8b 45 fc             	mov    -0x4(%ebp),%eax
c004295d:	8d 50 01             	lea    0x1(%eax),%edx
c0042960:	89 55 fc             	mov    %edx,-0x4(%ebp)
c0042963:	0f b6 55 ec          	movzbl -0x14(%ebp),%edx
c0042967:	88 10                	mov    %dl,(%eax)
c0042969:	83 6d 10 01          	subl   $0x1,0x10(%ebp)
c004296d:	83 7d 10 00          	cmpl   $0x0,0x10(%ebp)
c0042971:	75 e7                	jne    c004295a <memset+0x1e>
c0042973:	90                   	nop
c0042974:	c9                   	leave  
c0042975:	c3                   	ret    

c0042976 <bzero>:
c0042976:	55                   	push   %ebp
c0042977:	89 e5                	mov    %esp,%ebp
c0042979:	e8 39 03 00 00       	call   c0042cb7 <__x86.get_pc_thunk.ax>
c004297e:	05 56 0d 00 00       	add    $0xd56,%eax
c0042983:	ff 75 0c             	pushl  0xc(%ebp)
c0042986:	6a 00                	push   $0x0
c0042988:	ff 75 08             	pushl  0x8(%ebp)
c004298b:	e8 ac ff ff ff       	call   c004293c <memset>
c0042990:	83 c4 0c             	add    $0xc,%esp
c0042993:	90                   	nop
c0042994:	c9                   	leave  
c0042995:	c3                   	ret    

c0042996 <strcmp>:
c0042996:	55                   	push   %ebp
c0042997:	89 e5                	mov    %esp,%ebp
c0042999:	e8 19 03 00 00       	call   c0042cb7 <__x86.get_pc_thunk.ax>
c004299e:	05 36 0d 00 00       	add    $0xd36,%eax
c00429a3:	90                   	nop
c00429a4:	8b 45 08             	mov    0x8(%ebp),%eax
c00429a7:	0f b6 00             	movzbl (%eax),%eax
c00429aa:	84 c0                	test   %al,%al
c00429ac:	74 26                	je     c00429d4 <strcmp+0x3e>
c00429ae:	8b 45 0c             	mov    0xc(%ebp),%eax
c00429b1:	0f b6 00             	movzbl (%eax),%eax
c00429b4:	84 c0                	test   %al,%al
c00429b6:	74 1c                	je     c00429d4 <strcmp+0x3e>
c00429b8:	8b 45 08             	mov    0x8(%ebp),%eax
c00429bb:	8d 50 01             	lea    0x1(%eax),%edx
c00429be:	89 55 08             	mov    %edx,0x8(%ebp)
c00429c1:	0f b6 08             	movzbl (%eax),%ecx
c00429c4:	8b 45 0c             	mov    0xc(%ebp),%eax
c00429c7:	8d 50 01             	lea    0x1(%eax),%edx
c00429ca:	89 55 0c             	mov    %edx,0xc(%ebp)
c00429cd:	0f b6 00             	movzbl (%eax),%eax
c00429d0:	38 c1                	cmp    %al,%cl
c00429d2:	74 d0                	je     c00429a4 <strcmp+0xe>
c00429d4:	8b 45 08             	mov    0x8(%ebp),%eax
c00429d7:	0f b6 00             	movzbl (%eax),%eax
c00429da:	84 c0                	test   %al,%al
c00429dc:	75 11                	jne    c00429ef <strcmp+0x59>
c00429de:	8b 45 0c             	mov    0xc(%ebp),%eax
c00429e1:	0f b6 00             	movzbl (%eax),%eax
c00429e4:	84 c0                	test   %al,%al
c00429e6:	75 07                	jne    c00429ef <strcmp+0x59>
c00429e8:	b8 01 00 00 00       	mov    $0x1,%eax
c00429ed:	eb 16                	jmp    c0042a05 <strcmp+0x6f>
c00429ef:	8b 45 08             	mov    0x8(%ebp),%eax
c00429f2:	0f b6 00             	movzbl (%eax),%eax
c00429f5:	84 c0                	test   %al,%al
c00429f7:	75 07                	jne    c0042a00 <strcmp+0x6a>
c00429f9:	b8 00 00 00 00       	mov    $0x0,%eax
c00429fe:	eb 05                	jmp    c0042a05 <strcmp+0x6f>
c0042a00:	b8 01 00 00 00       	mov    $0x1,%eax
c0042a05:	5d                   	pop    %ebp
c0042a06:	c3                   	ret    

c0042a07 <strcpy>:
c0042a07:	55                   	push   %ebp
c0042a08:	89 e5                	mov    %esp,%ebp
c0042a0a:	83 ec 10             	sub    $0x10,%esp
c0042a0d:	e8 a5 02 00 00       	call   c0042cb7 <__x86.get_pc_thunk.ax>
c0042a12:	05 c2 0c 00 00       	add    $0xcc2,%eax
c0042a17:	8b 45 08             	mov    0x8(%ebp),%eax
c0042a1a:	89 45 fc             	mov    %eax,-0x4(%ebp)
c0042a1d:	eb 17                	jmp    c0042a36 <strcpy+0x2f>
c0042a1f:	8b 55 0c             	mov    0xc(%ebp),%edx
c0042a22:	8d 42 01             	lea    0x1(%edx),%eax
c0042a25:	89 45 0c             	mov    %eax,0xc(%ebp)
c0042a28:	8b 45 08             	mov    0x8(%ebp),%eax
c0042a2b:	8d 48 01             	lea    0x1(%eax),%ecx
c0042a2e:	89 4d 08             	mov    %ecx,0x8(%ebp)
c0042a31:	0f b6 12             	movzbl (%edx),%edx
c0042a34:	88 10                	mov    %dl,(%eax)
c0042a36:	8b 45 0c             	mov    0xc(%ebp),%eax
c0042a39:	0f b6 00             	movzbl (%eax),%eax
c0042a3c:	84 c0                	test   %al,%al
c0042a3e:	75 df                	jne    c0042a1f <strcpy+0x18>
c0042a40:	8b 45 08             	mov    0x8(%ebp),%eax
c0042a43:	c6 00 00             	movb   $0x0,(%eax)
c0042a46:	8b 45 fc             	mov    -0x4(%ebp),%eax
c0042a49:	c9                   	leave  
c0042a4a:	c3                   	ret    

c0042a4b <strcat>:
c0042a4b:	55                   	push   %ebp
c0042a4c:	89 e5                	mov    %esp,%ebp
c0042a4e:	83 ec 10             	sub    $0x10,%esp
c0042a51:	e8 61 02 00 00       	call   c0042cb7 <__x86.get_pc_thunk.ax>
c0042a56:	05 7e 0c 00 00       	add    $0xc7e,%eax
c0042a5b:	8b 45 08             	mov    0x8(%ebp),%eax
c0042a5e:	89 45 fc             	mov    %eax,-0x4(%ebp)
c0042a61:	eb 04                	jmp    c0042a67 <strcat+0x1c>
c0042a63:	83 45 fc 01          	addl   $0x1,-0x4(%ebp)
c0042a67:	8b 45 fc             	mov    -0x4(%ebp),%eax
c0042a6a:	0f b6 00             	movzbl (%eax),%eax
c0042a6d:	84 c0                	test   %al,%al
c0042a6f:	75 f2                	jne    c0042a63 <strcat+0x18>
c0042a71:	90                   	nop
c0042a72:	8b 55 0c             	mov    0xc(%ebp),%edx
c0042a75:	8d 42 01             	lea    0x1(%edx),%eax
c0042a78:	89 45 0c             	mov    %eax,0xc(%ebp)
c0042a7b:	8b 45 fc             	mov    -0x4(%ebp),%eax
c0042a7e:	8d 48 01             	lea    0x1(%eax),%ecx
c0042a81:	89 4d fc             	mov    %ecx,-0x4(%ebp)
c0042a84:	0f b6 12             	movzbl (%edx),%edx
c0042a87:	88 10                	mov    %dl,(%eax)
c0042a89:	0f b6 00             	movzbl (%eax),%eax
c0042a8c:	84 c0                	test   %al,%al
c0042a8e:	75 e2                	jne    c0042a72 <strcat+0x27>
c0042a90:	8b 45 08             	mov    0x8(%ebp),%eax
c0042a93:	c9                   	leave  
c0042a94:	c3                   	ret    

c0042a95 <strlen>:
c0042a95:	55                   	push   %ebp
c0042a96:	89 e5                	mov    %esp,%ebp
c0042a98:	83 ec 10             	sub    $0x10,%esp
c0042a9b:	e8 17 02 00 00       	call   c0042cb7 <__x86.get_pc_thunk.ax>
c0042aa0:	05 34 0c 00 00       	add    $0xc34,%eax
c0042aa5:	8b 45 08             	mov    0x8(%ebp),%eax
c0042aa8:	89 45 fc             	mov    %eax,-0x4(%ebp)
c0042aab:	90                   	nop
c0042aac:	8b 45 fc             	mov    -0x4(%ebp),%eax
c0042aaf:	8d 50 01             	lea    0x1(%eax),%edx
c0042ab2:	89 55 fc             	mov    %edx,-0x4(%ebp)
c0042ab5:	0f b6 00             	movzbl (%eax),%eax
c0042ab8:	84 c0                	test   %al,%al
c0042aba:	75 f0                	jne    c0042aac <strlen+0x17>
c0042abc:	8b 55 fc             	mov    -0x4(%ebp),%edx
c0042abf:	8b 45 08             	mov    0x8(%ebp),%eax
c0042ac2:	29 c2                	sub    %eax,%edx
c0042ac4:	89 d0                	mov    %edx,%eax
c0042ac6:	83 e8 01             	sub    $0x1,%eax
c0042ac9:	c9                   	leave  
c0042aca:	c3                   	ret    

c0042acb <isr_ctx_save>:
c0042acb:	60                   	pusha  
c0042acc:	66 8c d8             	mov    %ds,%ax
c0042acf:	50                   	push   %eax
c0042ad0:	66 b8 10 00          	mov    $0x10,%ax
c0042ad4:	8e d8                	mov    %eax,%ds
c0042ad6:	8e c0                	mov    %eax,%es
c0042ad8:	8e e0                	mov    %eax,%fs
c0042ada:	8e e8                	mov    %eax,%gs
c0042adc:	8e d0                	mov    %eax,%ss
c0042ade:	54                   	push   %esp
c0042adf:	e8 70 d8 ff ff       	call   c0040354 <isr_handler_dispatcher>
c0042ae4:	83 c4 04             	add    $0x4,%esp
c0042ae7:	5b                   	pop    %ebx
c0042ae8:	8e db                	mov    %ebx,%ds
c0042aea:	8e c3                	mov    %ebx,%es
c0042aec:	8e e3                	mov    %ebx,%fs
c0042aee:	8e eb                	mov    %ebx,%gs
c0042af0:	8e d3                	mov    %ebx,%ss
c0042af2:	61                   	popa   
c0042af3:	83 c4 08             	add    $0x8,%esp
c0042af6:	cf                   	iret   

c0042af7 <isr0>:
c0042af7:	fa                   	cli    
c0042af8:	6a 00                	push   $0x0
c0042afa:	6a 00                	push   $0x0
c0042afc:	eb cd                	jmp    c0042acb <isr_ctx_save>

c0042afe <isr1>:
c0042afe:	fa                   	cli    
c0042aff:	6a 00                	push   $0x0
c0042b01:	6a 01                	push   $0x1
c0042b03:	eb c6                	jmp    c0042acb <isr_ctx_save>

c0042b05 <isr2>:
c0042b05:	fa                   	cli    
c0042b06:	6a 00                	push   $0x0
c0042b08:	6a 02                	push   $0x2
c0042b0a:	eb bf                	jmp    c0042acb <isr_ctx_save>

c0042b0c <isr3>:
c0042b0c:	fa                   	cli    
c0042b0d:	6a 00                	push   $0x0
c0042b0f:	6a 03                	push   $0x3
c0042b11:	eb b8                	jmp    c0042acb <isr_ctx_save>

c0042b13 <isr4>:
c0042b13:	fa                   	cli    
c0042b14:	6a 00                	push   $0x0
c0042b16:	6a 04                	push   $0x4
c0042b18:	eb b1                	jmp    c0042acb <isr_ctx_save>

c0042b1a <isr5>:
c0042b1a:	fa                   	cli    
c0042b1b:	6a 00                	push   $0x0
c0042b1d:	6a 05                	push   $0x5
c0042b1f:	eb aa                	jmp    c0042acb <isr_ctx_save>

c0042b21 <isr6>:
c0042b21:	fa                   	cli    
c0042b22:	6a 00                	push   $0x0
c0042b24:	6a 06                	push   $0x6
c0042b26:	eb a3                	jmp    c0042acb <isr_ctx_save>

c0042b28 <isr7>:
c0042b28:	fa                   	cli    
c0042b29:	6a 00                	push   $0x0
c0042b2b:	6a 07                	push   $0x7
c0042b2d:	eb 9c                	jmp    c0042acb <isr_ctx_save>

c0042b2f <isr8>:
c0042b2f:	fa                   	cli    
c0042b30:	6a 08                	push   $0x8
c0042b32:	eb 97                	jmp    c0042acb <isr_ctx_save>

c0042b34 <isr9>:
c0042b34:	fa                   	cli    
c0042b35:	6a 00                	push   $0x0
c0042b37:	6a 09                	push   $0x9
c0042b39:	eb 90                	jmp    c0042acb <isr_ctx_save>

c0042b3b <isr10>:
c0042b3b:	fa                   	cli    
c0042b3c:	6a 0a                	push   $0xa
c0042b3e:	eb 8b                	jmp    c0042acb <isr_ctx_save>

c0042b40 <isr11>:
c0042b40:	fa                   	cli    
c0042b41:	6a 0b                	push   $0xb
c0042b43:	eb 86                	jmp    c0042acb <isr_ctx_save>

c0042b45 <isr12>:
c0042b45:	fa                   	cli    
c0042b46:	6a 0c                	push   $0xc
c0042b48:	eb 81                	jmp    c0042acb <isr_ctx_save>

c0042b4a <isr13>:
c0042b4a:	fa                   	cli    
c0042b4b:	6a 0d                	push   $0xd
c0042b4d:	e9 79 ff ff ff       	jmp    c0042acb <isr_ctx_save>

c0042b52 <isr14>:
c0042b52:	fa                   	cli    
c0042b53:	6a 0e                	push   $0xe
c0042b55:	e9 71 ff ff ff       	jmp    c0042acb <isr_ctx_save>

c0042b5a <isr15>:
c0042b5a:	fa                   	cli    
c0042b5b:	6a 00                	push   $0x0
c0042b5d:	6a 0f                	push   $0xf
c0042b5f:	e9 67 ff ff ff       	jmp    c0042acb <isr_ctx_save>

c0042b64 <isr16>:
c0042b64:	fa                   	cli    
c0042b65:	6a 00                	push   $0x0
c0042b67:	6a 10                	push   $0x10
c0042b69:	e9 5d ff ff ff       	jmp    c0042acb <isr_ctx_save>

c0042b6e <isr17>:
c0042b6e:	fa                   	cli    
c0042b6f:	6a 11                	push   $0x11
c0042b71:	e9 55 ff ff ff       	jmp    c0042acb <isr_ctx_save>

c0042b76 <isr18>:
c0042b76:	fa                   	cli    
c0042b77:	6a 00                	push   $0x0
c0042b79:	6a 12                	push   $0x12
c0042b7b:	e9 4b ff ff ff       	jmp    c0042acb <isr_ctx_save>

c0042b80 <isr19>:
c0042b80:	fa                   	cli    
c0042b81:	6a 00                	push   $0x0
c0042b83:	6a 13                	push   $0x13
c0042b85:	e9 41 ff ff ff       	jmp    c0042acb <isr_ctx_save>

c0042b8a <isr20>:
c0042b8a:	fa                   	cli    
c0042b8b:	6a 00                	push   $0x0
c0042b8d:	6a 14                	push   $0x14
c0042b8f:	e9 37 ff ff ff       	jmp    c0042acb <isr_ctx_save>

c0042b94 <isr21>:
c0042b94:	fa                   	cli    
c0042b95:	6a 00                	push   $0x0
c0042b97:	6a 15                	push   $0x15
c0042b99:	e9 2d ff ff ff       	jmp    c0042acb <isr_ctx_save>

c0042b9e <isr22>:
c0042b9e:	fa                   	cli    
c0042b9f:	6a 00                	push   $0x0
c0042ba1:	6a 16                	push   $0x16
c0042ba3:	e9 23 ff ff ff       	jmp    c0042acb <isr_ctx_save>

c0042ba8 <isr23>:
c0042ba8:	fa                   	cli    
c0042ba9:	6a 00                	push   $0x0
c0042bab:	6a 17                	push   $0x17
c0042bad:	e9 19 ff ff ff       	jmp    c0042acb <isr_ctx_save>

c0042bb2 <isr24>:
c0042bb2:	fa                   	cli    
c0042bb3:	6a 00                	push   $0x0
c0042bb5:	6a 18                	push   $0x18
c0042bb7:	e9 0f ff ff ff       	jmp    c0042acb <isr_ctx_save>

c0042bbc <isr25>:
c0042bbc:	fa                   	cli    
c0042bbd:	6a 00                	push   $0x0
c0042bbf:	6a 19                	push   $0x19
c0042bc1:	e9 05 ff ff ff       	jmp    c0042acb <isr_ctx_save>

c0042bc6 <isr26>:
c0042bc6:	fa                   	cli    
c0042bc7:	6a 00                	push   $0x0
c0042bc9:	6a 1a                	push   $0x1a
c0042bcb:	e9 fb fe ff ff       	jmp    c0042acb <isr_ctx_save>

c0042bd0 <isr27>:
c0042bd0:	fa                   	cli    
c0042bd1:	6a 00                	push   $0x0
c0042bd3:	6a 1b                	push   $0x1b
c0042bd5:	e9 f1 fe ff ff       	jmp    c0042acb <isr_ctx_save>

c0042bda <isr28>:
c0042bda:	fa                   	cli    
c0042bdb:	6a 00                	push   $0x0
c0042bdd:	6a 1c                	push   $0x1c
c0042bdf:	e9 e7 fe ff ff       	jmp    c0042acb <isr_ctx_save>

c0042be4 <isr29>:
c0042be4:	fa                   	cli    
c0042be5:	6a 00                	push   $0x0
c0042be7:	6a 1d                	push   $0x1d
c0042be9:	e9 dd fe ff ff       	jmp    c0042acb <isr_ctx_save>

c0042bee <isr30>:
c0042bee:	fa                   	cli    
c0042bef:	6a 00                	push   $0x0
c0042bf1:	6a 1e                	push   $0x1e
c0042bf3:	e9 d3 fe ff ff       	jmp    c0042acb <isr_ctx_save>

c0042bf8 <isr31>:
c0042bf8:	fa                   	cli    
c0042bf9:	6a 00                	push   $0x0
c0042bfb:	6a 1f                	push   $0x1f
c0042bfd:	e9 c9 fe ff ff       	jmp    c0042acb <isr_ctx_save>

c0042c02 <isr255>:
c0042c02:	fa                   	cli    
c0042c03:	6a 00                	push   $0x0
c0042c05:	68 ff 00 00 00       	push   $0xff
c0042c0a:	e9 bc fe ff ff       	jmp    c0042acb <isr_ctx_save>

c0042c0f <irq_ctx_save>:
c0042c0f:	60                   	pusha  
c0042c10:	66 8c d8             	mov    %ds,%ax
c0042c13:	50                   	push   %eax
c0042c14:	66 b8 10 00          	mov    $0x10,%ax
c0042c18:	8e d8                	mov    %eax,%ds
c0042c1a:	8e c0                	mov    %eax,%es
c0042c1c:	8e e0                	mov    %eax,%fs
c0042c1e:	8e e8                	mov    %eax,%gs
c0042c20:	8e d0                	mov    %eax,%ss
c0042c22:	54                   	push   %esp
c0042c23:	e8 bd d7 ff ff       	call   c00403e5 <irq_handler_dispathcer>
c0042c28:	83 c4 04             	add    $0x4,%esp
c0042c2b:	5b                   	pop    %ebx
c0042c2c:	8e db                	mov    %ebx,%ds
c0042c2e:	8e c3                	mov    %ebx,%es
c0042c30:	8e e3                	mov    %ebx,%fs
c0042c32:	8e eb                	mov    %ebx,%gs
c0042c34:	8e d3                	mov    %ebx,%ss
c0042c36:	61                   	popa   
c0042c37:	83 c4 08             	add    $0x8,%esp
c0042c3a:	cf                   	iret   

c0042c3b <irq0>:
c0042c3b:	fa                   	cli    
c0042c3c:	6a 00                	push   $0x0
c0042c3e:	6a 20                	push   $0x20
c0042c40:	eb cd                	jmp    c0042c0f <irq_ctx_save>

c0042c42 <irq1>:
c0042c42:	fa                   	cli    
c0042c43:	6a 00                	push   $0x0
c0042c45:	6a 21                	push   $0x21
c0042c47:	eb c6                	jmp    c0042c0f <irq_ctx_save>

c0042c49 <irq2>:
c0042c49:	fa                   	cli    
c0042c4a:	6a 00                	push   $0x0
c0042c4c:	6a 22                	push   $0x22
c0042c4e:	eb bf                	jmp    c0042c0f <irq_ctx_save>

c0042c50 <irq3>:
c0042c50:	fa                   	cli    
c0042c51:	6a 00                	push   $0x0
c0042c53:	6a 23                	push   $0x23
c0042c55:	eb b8                	jmp    c0042c0f <irq_ctx_save>

c0042c57 <irq4>:
c0042c57:	fa                   	cli    
c0042c58:	6a 00                	push   $0x0
c0042c5a:	6a 24                	push   $0x24
c0042c5c:	eb b1                	jmp    c0042c0f <irq_ctx_save>

c0042c5e <irq5>:
c0042c5e:	fa                   	cli    
c0042c5f:	6a 00                	push   $0x0
c0042c61:	6a 25                	push   $0x25
c0042c63:	eb aa                	jmp    c0042c0f <irq_ctx_save>

c0042c65 <irq6>:
c0042c65:	fa                   	cli    
c0042c66:	6a 00                	push   $0x0
c0042c68:	6a 26                	push   $0x26
c0042c6a:	eb a3                	jmp    c0042c0f <irq_ctx_save>

c0042c6c <irq7>:
c0042c6c:	fa                   	cli    
c0042c6d:	6a 00                	push   $0x0
c0042c6f:	6a 27                	push   $0x27
c0042c71:	eb 9c                	jmp    c0042c0f <irq_ctx_save>

c0042c73 <irq8>:
c0042c73:	fa                   	cli    
c0042c74:	6a 00                	push   $0x0
c0042c76:	6a 28                	push   $0x28
c0042c78:	eb 95                	jmp    c0042c0f <irq_ctx_save>

c0042c7a <irq9>:
c0042c7a:	fa                   	cli    
c0042c7b:	6a 00                	push   $0x0
c0042c7d:	6a 29                	push   $0x29
c0042c7f:	eb 8e                	jmp    c0042c0f <irq_ctx_save>

c0042c81 <irq10>:
c0042c81:	fa                   	cli    
c0042c82:	6a 00                	push   $0x0
c0042c84:	6a 2a                	push   $0x2a
c0042c86:	eb 87                	jmp    c0042c0f <irq_ctx_save>

c0042c88 <irq11>:
c0042c88:	fa                   	cli    
c0042c89:	6a 00                	push   $0x0
c0042c8b:	6a 2b                	push   $0x2b
c0042c8d:	eb 80                	jmp    c0042c0f <irq_ctx_save>

c0042c8f <irq12>:
c0042c8f:	fa                   	cli    
c0042c90:	6a 00                	push   $0x0
c0042c92:	6a 2c                	push   $0x2c
c0042c94:	e9 76 ff ff ff       	jmp    c0042c0f <irq_ctx_save>

c0042c99 <irq13>:
c0042c99:	fa                   	cli    
c0042c9a:	6a 00                	push   $0x0
c0042c9c:	6a 2d                	push   $0x2d
c0042c9e:	e9 6c ff ff ff       	jmp    c0042c0f <irq_ctx_save>

c0042ca3 <irq14>:
c0042ca3:	fa                   	cli    
c0042ca4:	6a 00                	push   $0x0
c0042ca6:	6a 2e                	push   $0x2e
c0042ca8:	e9 62 ff ff ff       	jmp    c0042c0f <irq_ctx_save>

c0042cad <irq15>:
c0042cad:	fa                   	cli    
c0042cae:	6a 00                	push   $0x0
c0042cb0:	6a 2f                	push   $0x2f
c0042cb2:	e9 58 ff ff ff       	jmp    c0042c0f <irq_ctx_save>

Disassembly of section .text.__x86.get_pc_thunk.ax:

c0042cb7 <__x86.get_pc_thunk.ax>:
c0042cb7:	8b 04 24             	mov    (%esp),%eax
c0042cba:	c3                   	ret    

Disassembly of section .text.__x86.get_pc_thunk.bx:

c0042cbb <__x86.get_pc_thunk.bx>:
c0042cbb:	8b 1c 24             	mov    (%esp),%ebx
c0042cbe:	c3                   	ret    

Disassembly of section .eh_frame:

c0042cc0 <.eh_frame>:
c0042cc0:	14 00                	adc    $0x0,%al
c0042cc2:	00 00                	add    %al,(%eax)
c0042cc4:	00 00                	add    %al,(%eax)
c0042cc6:	00 00                	add    %al,(%eax)
c0042cc8:	01 7a 52             	add    %edi,0x52(%edx)
c0042ccb:	00 01                	add    %al,(%ecx)
c0042ccd:	7c 08                	jl     c0042cd7 <__x86.get_pc_thunk.bx+0x1c>
c0042ccf:	01 1b                	add    %ebx,(%ebx)
c0042cd1:	0c 04                	or     $0x4,%al
c0042cd3:	04 88                	add    $0x88,%al
c0042cd5:	01 00                	add    %eax,(%eax)
c0042cd7:	00 1c 00             	add    %bl,(%eax,%eax,1)
c0042cda:	00 00                	add    %al,(%eax)
c0042cdc:	1c 00                	sbb    $0x0,%al
c0042cde:	00 00                	add    %al,(%eax)
c0042ce0:	d6                   	(bad)  
c0042ce1:	d3 ff                	sar    %cl,%edi
c0042ce3:	ff 10                	call   *(%eax)
c0042ce5:	00 00                	add    %al,(%eax)
c0042ce7:	00 00                	add    %al,(%eax)
c0042ce9:	41                   	inc    %ecx
c0042cea:	0e                   	push   %cs
c0042ceb:	08 85 02 42 0d 05    	or     %al,0x50d4202(%ebp)
c0042cf1:	4c                   	dec    %esp
c0042cf2:	c5 0c 04             	lds    (%esp,%eax,1),%ecx
c0042cf5:	04 00                	add    $0x0,%al
c0042cf7:	00 10                	add    %dl,(%eax)
c0042cf9:	00 00                	add    %al,(%eax)
c0042cfb:	00 3c 00             	add    %bh,(%eax,%eax,1)
c0042cfe:	00 00                	add    %al,(%eax)
c0042d00:	b7 ff                	mov    $0xff,%bh
c0042d02:	ff                   	(bad)  
c0042d03:	ff 04 00             	incl   (%eax,%eax,1)
c0042d06:	00 00                	add    %al,(%eax)
c0042d08:	00 00                	add    %al,(%eax)
c0042d0a:	00 00                	add    %al,(%eax)
c0042d0c:	1c 00                	sbb    $0x0,%al
c0042d0e:	00 00                	add    %al,(%eax)
c0042d10:	50                   	push   %eax
c0042d11:	00 00                	add    %al,(%eax)
c0042d13:	00 b2 d3 ff ff 29    	add    %dh,0x29ffffd3(%edx)
c0042d19:	00 00                	add    %al,(%eax)
c0042d1b:	00 00                	add    %al,(%eax)
c0042d1d:	41                   	inc    %ecx
c0042d1e:	0e                   	push   %cs
c0042d1f:	08 85 02 42 0d 05    	or     %al,0x50d4202(%ebp)
c0042d25:	65 c5 0c 04          	lds    %gs:(%esp,%eax,1),%ecx
c0042d29:	04 00                	add    $0x0,%al
c0042d2b:	00 20                	add    %ah,(%eax)
c0042d2d:	00 00                	add    %al,(%eax)
c0042d2f:	00 70 00             	add    %dh,0x0(%eax)
c0042d32:	00 00                	add    %al,(%eax)
c0042d34:	bb d3 ff ff ae       	mov    $0xaeffffd3,%ebx
c0042d39:	00 00                	add    %al,(%eax)
c0042d3b:	00 00                	add    %al,(%eax)
c0042d3d:	41                   	inc    %ecx
c0042d3e:	0e                   	push   %cs
c0042d3f:	08 85 02 42 0d 05    	or     %al,0x50d4202(%ebp)
c0042d45:	44                   	inc    %esp
c0042d46:	83 03 02             	addl   $0x2,(%ebx)
c0042d49:	a6                   	cmpsb  %es:(%edi),%ds:(%esi)
c0042d4a:	c5 c3 0c             	(bad)  
c0042d4d:	04 04                	add    $0x4,%al
c0042d4f:	00 24 00             	add    %ah,(%eax,%eax,1)
c0042d52:	00 00                	add    %al,(%eax)
c0042d54:	94                   	xchg   %eax,%esp
c0042d55:	00 00                	add    %al,(%eax)
c0042d57:	00 45 d4             	add    %al,-0x2c(%ebp)
c0042d5a:	ff                   	(bad)  
c0042d5b:	ff b3 00 00 00 00    	pushl  0x0(%ebx)
c0042d61:	41                   	inc    %ecx
c0042d62:	0e                   	push   %cs
c0042d63:	08 85 02 42 0d 05    	or     %al,0x50d4202(%ebp)
c0042d69:	45                   	inc    %ebp
c0042d6a:	86 03                	xchg   %al,(%ebx)
c0042d6c:	83 04 02 a8          	addl   $0xffffffa8,(%edx,%eax,1)
c0042d70:	c3                   	ret    
c0042d71:	41                   	inc    %ecx
c0042d72:	c6 41 c5 0c          	movb   $0xc,-0x3b(%ecx)
c0042d76:	04 04                	add    $0x4,%al
c0042d78:	1c 00                	sbb    $0x0,%al
c0042d7a:	00 00                	add    %al,(%eax)
c0042d7c:	bc 00 00 00 d0       	mov    $0xd0000000,%esp
c0042d81:	d4 ff                	aam    $0xff
c0042d83:	ff 6a 00             	ljmp   *0x0(%edx)
c0042d86:	00 00                	add    %al,(%eax)
c0042d88:	00 41 0e             	add    %al,0xe(%ecx)
c0042d8b:	08 85 02 42 0d 05    	or     %al,0x50d4202(%ebp)
c0042d91:	02 66 c5             	add    -0x3b(%esi),%ah
c0042d94:	0c 04                	or     $0x4,%al
c0042d96:	04 00                	add    $0x0,%al
c0042d98:	10 00                	adc    %al,(%eax)
c0042d9a:	00 00                	add    %al,(%eax)
c0042d9c:	dc 00                	faddl  (%eax)
c0042d9e:	00 00                	add    %al,(%eax)
c0042da0:	1b ff                	sbb    %edi,%edi
c0042da2:	ff                   	(bad)  
c0042da3:	ff 04 00             	incl   (%eax,%eax,1)
c0042da6:	00 00                	add    %al,(%eax)
c0042da8:	00 00                	add    %al,(%eax)
c0042daa:	00 00                	add    %al,(%eax)
c0042dac:	1c 00                	sbb    $0x0,%al
c0042dae:	00 00                	add    %al,(%eax)
c0042db0:	f0 00 00             	lock add %al,(%eax)
c0042db3:	00 06                	add    %al,(%esi)
c0042db5:	d5 ff                	aad    $0xff
c0042db7:	ff 10                	call   *(%eax)
c0042db9:	00 00                	add    %al,(%eax)
c0042dbb:	00 00                	add    %al,(%eax)
c0042dbd:	41                   	inc    %ecx
c0042dbe:	0e                   	push   %cs
c0042dbf:	08 85 02 42 0d 05    	or     %al,0x50d4202(%ebp)
c0042dc5:	4c                   	dec    %esp
c0042dc6:	c5 0c 04             	lds    (%esp,%eax,1),%ecx
c0042dc9:	04 00                	add    $0x0,%al
c0042dcb:	00 20                	add    %ah,(%eax)
c0042dcd:	00 00                	add    %al,(%eax)
c0042dcf:	00 10                	add    %dl,(%eax)
c0042dd1:	01 00                	add    %eax,(%eax)
c0042dd3:	00 f6                	add    %dh,%dh
c0042dd5:	d4 ff                	aam    $0xff
c0042dd7:	ff 8a 00 00 00 00    	decl   0x0(%edx)
c0042ddd:	41                   	inc    %ecx
c0042dde:	0e                   	push   %cs
c0042ddf:	08 85 02 42 0d 05    	or     %al,0x50d4202(%ebp)
c0042de5:	44                   	inc    %esp
c0042de6:	83 03 02             	addl   $0x2,(%ebx)
c0042de9:	82 c5 c3             	add    $0xc3,%ch
c0042dec:	0c 04                	or     $0x4,%al
c0042dee:	04 00                	add    $0x0,%al
c0042df0:	20 00                	and    %al,(%eax)
c0042df2:	00 00                	add    %al,(%eax)
c0042df4:	34 01                	xor    $0x1,%al
c0042df6:	00 00                	add    %al,(%eax)
c0042df8:	5c                   	pop    %esp
c0042df9:	d5 ff                	aad    $0xff
c0042dfb:	ff 91 00 00 00 00    	call   *0x0(%ecx)
c0042e01:	41                   	inc    %ecx
c0042e02:	0e                   	push   %cs
c0042e03:	08 85 02 42 0d 05    	or     %al,0x50d4202(%ebp)
c0042e09:	44                   	inc    %esp
c0042e0a:	83 03 02             	addl   $0x2,(%ebx)
c0042e0d:	89 c5                	mov    %eax,%ebp
c0042e0f:	c3                   	ret    
c0042e10:	0c 04                	or     $0x4,%al
c0042e12:	04 00                	add    $0x0,%al
c0042e14:	20 00                	and    %al,(%eax)
c0042e16:	00 00                	add    %al,(%eax)
c0042e18:	58                   	pop    %eax
c0042e19:	01 00                	add    %eax,(%eax)
c0042e1b:	00 c9                	add    %cl,%cl
c0042e1d:	d5 ff                	aad    $0xff
c0042e1f:	ff 71 00             	pushl  0x0(%ecx)
c0042e22:	00 00                	add    %al,(%eax)
c0042e24:	00 41 0e             	add    %al,0xe(%ecx)
c0042e27:	08 85 02 42 0d 05    	or     %al,0x50d4202(%ebp)
c0042e2d:	44                   	inc    %esp
c0042e2e:	83 03 02             	addl   $0x2,(%ebx)
c0042e31:	69 c5 c3 0c 04 04    	imul   $0x4040cc3,%ebp,%eax
c0042e37:	00 20                	add    %ah,(%eax)
c0042e39:	00 00                	add    %al,(%eax)
c0042e3b:	00 7c 01 00          	add    %bh,0x0(%ecx,%eax,1)
c0042e3f:	00 16                	add    %dl,(%esi)
c0042e41:	d6                   	(bad)  
c0042e42:	ff                   	(bad)  
c0042e43:	ff d5                	call   *%ebp
c0042e45:	0f 00 00             	sldt   (%eax)
c0042e48:	00 41 0e             	add    %al,0xe(%ecx)
c0042e4b:	08 85 02 42 0d 05    	or     %al,0x50d4202(%ebp)
c0042e51:	44                   	inc    %esp
c0042e52:	83 03 03             	addl   $0x3,(%ebx)
c0042e55:	cd 0f                	int    $0xf
c0042e57:	c5 c3 0c             	(bad)  
c0042e5a:	04 04                	add    $0x4,%al
c0042e5c:	1c 00                	sbb    $0x0,%al
c0042e5e:	00 00                	add    %al,(%eax)
c0042e60:	a0 01 00 00 c7       	mov    0xc7000001,%al
c0042e65:	e5 ff                	in     $0xff,%eax
c0042e67:	ff 29                	ljmp   *(%ecx)
c0042e69:	00 00                	add    %al,(%eax)
c0042e6b:	00 00                	add    %al,(%eax)
c0042e6d:	41                   	inc    %ecx
c0042e6e:	0e                   	push   %cs
c0042e6f:	08 85 02 42 0d 05    	or     %al,0x50d4202(%ebp)
c0042e75:	65 c5 0c 04          	lds    %gs:(%esp,%eax,1),%ecx
c0042e79:	04 00                	add    $0x0,%al
c0042e7b:	00 20                	add    %ah,(%eax)
c0042e7d:	00 00                	add    %al,(%eax)
c0042e7f:	00 c0                	add    %al,%al
c0042e81:	01 00                	add    %eax,(%eax)
c0042e83:	00 d0                	add    %dl,%al
c0042e85:	e5 ff                	in     $0xff,%eax
c0042e87:	ff cf                	dec    %edi
c0042e89:	00 00                	add    %al,(%eax)
c0042e8b:	00 00                	add    %al,(%eax)
c0042e8d:	41                   	inc    %ecx
c0042e8e:	0e                   	push   %cs
c0042e8f:	08 85 02 42 0d 05    	or     %al,0x50d4202(%ebp)
c0042e95:	44                   	inc    %esp
c0042e96:	83 03 02             	addl   $0x2,(%ebx)
c0042e99:	c7 c5 c3 0c 04 04    	mov    $0x4040cc3,%ebp
c0042e9f:	00 20                	add    %ah,(%eax)
c0042ea1:	00 00                	add    %al,(%eax)
c0042ea3:	00 e4                	add    %ah,%ah
c0042ea5:	01 00                	add    %eax,(%eax)
c0042ea7:	00 7b e6             	add    %bh,-0x1a(%ebx)
c0042eaa:	ff                   	(bad)  
c0042eab:	ff 2b                	ljmp   *(%ebx)
c0042ead:	00 00                	add    %al,(%eax)
c0042eaf:	00 00                	add    %al,(%eax)
c0042eb1:	41                   	inc    %ecx
c0042eb2:	0e                   	push   %cs
c0042eb3:	08 85 02 42 0d 05    	or     %al,0x50d4202(%ebp)
c0042eb9:	44                   	inc    %esp
c0042eba:	83 03 63             	addl   $0x63,(%ebx)
c0042ebd:	c5 c3 0c             	(bad)  
c0042ec0:	04 04                	add    $0x4,%al
c0042ec2:	00 00                	add    %al,(%eax)
c0042ec4:	20 00                	and    %al,(%eax)
c0042ec6:	00 00                	add    %al,(%eax)
c0042ec8:	08 02                	or     %al,(%edx)
c0042eca:	00 00                	add    %al,(%eax)
c0042ecc:	82 e6 ff             	and    $0xff,%dh
c0042ecf:	ff 67 00             	jmp    *0x0(%edi)
c0042ed2:	00 00                	add    %al,(%eax)
c0042ed4:	00 41 0e             	add    %al,0xe(%ecx)
c0042ed7:	08 85 02 42 0d 05    	or     %al,0x50d4202(%ebp)
c0042edd:	44                   	inc    %esp
c0042ede:	83 03 02             	addl   $0x2,(%ebx)
c0042ee1:	5f                   	pop    %edi
c0042ee2:	c5 c3 0c             	(bad)  
c0042ee5:	04 04                	add    $0x4,%al
c0042ee7:	00 20                	add    %ah,(%eax)
c0042ee9:	00 00                	add    %al,(%eax)
c0042eeb:	00 2c 02             	add    %ch,(%edx,%eax,1)
c0042eee:	00 00                	add    %al,(%eax)
c0042ef0:	c5 e6 ff             	(bad)  
c0042ef3:	ff                   	(bad)  
c0042ef4:	3e 00 00             	add    %al,%ds:(%eax)
c0042ef7:	00 00                	add    %al,(%eax)
c0042ef9:	41                   	inc    %ecx
c0042efa:	0e                   	push   %cs
c0042efb:	08 85 02 42 0d 05    	or     %al,0x50d4202(%ebp)
c0042f01:	44                   	inc    %esp
c0042f02:	83 03 76             	addl   $0x76,(%ebx)
c0042f05:	c5 c3 0c             	(bad)  
c0042f08:	04 04                	add    $0x4,%al
c0042f0a:	00 00                	add    %al,(%eax)
c0042f0c:	1c 00                	sbb    $0x0,%al
c0042f0e:	00 00                	add    %al,(%eax)
c0042f10:	50                   	push   %eax
c0042f11:	02 00                	add    (%eax),%al
c0042f13:	00 df                	add    %bl,%bh
c0042f15:	e6 ff                	out    %al,$0xff
c0042f17:	ff e4                	jmp    *%esp
c0042f19:	01 00                	add    %eax,(%eax)
c0042f1b:	00 00                	add    %al,(%eax)
c0042f1d:	41                   	inc    %ecx
c0042f1e:	0e                   	push   %cs
c0042f1f:	08 85 02 42 0d 05    	or     %al,0x50d4202(%ebp)
c0042f25:	03 e0                	add    %eax,%esp
c0042f27:	01 c5                	add    %eax,%ebp
c0042f29:	0c 04                	or     $0x4,%al
c0042f2b:	04 20                	add    $0x20,%al
c0042f2d:	00 00                	add    %al,(%eax)
c0042f2f:	00 70 02             	add    %dh,0x2(%eax)
c0042f32:	00 00                	add    %al,(%eax)
c0042f34:	a3 e8 ff ff 79       	mov    %eax,0x79ffffe8
c0042f39:	00 00                	add    %al,(%eax)
c0042f3b:	00 00                	add    %al,(%eax)
c0042f3d:	41                   	inc    %ecx
c0042f3e:	0e                   	push   %cs
c0042f3f:	08 85 02 42 0d 05    	or     %al,0x50d4202(%ebp)
c0042f45:	44                   	inc    %esp
c0042f46:	83 03 02             	addl   $0x2,(%ebx)
c0042f49:	71 c5                	jno    c0042f10 <__x86.get_pc_thunk.bx+0x255>
c0042f4b:	c3                   	ret    
c0042f4c:	0c 04                	or     $0x4,%al
c0042f4e:	04 00                	add    $0x0,%al
c0042f50:	20 00                	and    %al,(%eax)
c0042f52:	00 00                	add    %al,(%eax)
c0042f54:	94                   	xchg   %eax,%esp
c0042f55:	02 00                	add    (%eax),%al
c0042f57:	00 f8                	add    %bh,%al
c0042f59:	e8 ff ff 90 00       	call   c0952f5d <mem_seg_descriptor+0x9082fd>
c0042f5e:	00 00                	add    %al,(%eax)
c0042f60:	00 41 0e             	add    %al,0xe(%ecx)
c0042f63:	08 85 02 42 0d 05    	or     %al,0x50d4202(%ebp)
c0042f69:	44                   	inc    %esp
c0042f6a:	83 03 02             	addl   $0x2,(%ebx)
c0042f6d:	88 c5                	mov    %al,%ch
c0042f6f:	c3                   	ret    
c0042f70:	0c 04                	or     $0x4,%al
c0042f72:	04 00                	add    $0x0,%al
c0042f74:	1c 00                	sbb    $0x0,%al
c0042f76:	00 00                	add    %al,(%eax)
c0042f78:	b8 02 00 00 64       	mov    $0x64000002,%eax
c0042f7d:	e9 ff ff 10 00       	jmp    c0152f81 <mem_seg_descriptor+0x108321>
c0042f82:	00 00                	add    %al,(%eax)
c0042f84:	00 41 0e             	add    %al,0xe(%ecx)
c0042f87:	08 85 02 42 0d 05    	or     %al,0x50d4202(%ebp)
c0042f8d:	4c                   	dec    %esp
c0042f8e:	c5 0c 04             	lds    (%esp,%eax,1),%ecx
c0042f91:	04 00                	add    $0x0,%al
c0042f93:	00 1c 00             	add    %bl,(%eax,%eax,1)
c0042f96:	00 00                	add    %al,(%eax)
c0042f98:	d8 02                	fadds  (%edx)
c0042f9a:	00 00                	add    %al,(%eax)
c0042f9c:	54                   	push   %esp
c0042f9d:	e9 ff ff 30 00       	jmp    c0352fa1 <mem_seg_descriptor+0x308341>
c0042fa2:	00 00                	add    %al,(%eax)
c0042fa4:	00 41 0e             	add    %al,0xe(%ecx)
c0042fa7:	08 85 02 42 0d 05    	or     %al,0x50d4202(%ebp)
c0042fad:	6c                   	insb   (%dx),%es:(%edi)
c0042fae:	c5 0c 04             	lds    (%esp,%eax,1),%ecx
c0042fb1:	04 00                	add    $0x0,%al
c0042fb3:	00 1c 00             	add    %bl,(%eax,%eax,1)
c0042fb6:	00 00                	add    %al,(%eax)
c0042fb8:	f8                   	clc    
c0042fb9:	02 00                	add    (%eax),%al
c0042fbb:	00 64 e9 ff          	add    %ah,-0x1(%ecx,%ebp,8)
c0042fbf:	ff 4f 00             	decl   0x0(%edi)
c0042fc2:	00 00                	add    %al,(%eax)
c0042fc4:	00 41 0e             	add    %al,0xe(%ecx)
c0042fc7:	08 85 02 42 0d 05    	or     %al,0x50d4202(%ebp)
c0042fcd:	02 4b c5             	add    -0x3b(%ebx),%cl
c0042fd0:	0c 04                	or     $0x4,%al
c0042fd2:	04 00                	add    $0x0,%al
c0042fd4:	1c 00                	sbb    $0x0,%al
c0042fd6:	00 00                	add    %al,(%eax)
c0042fd8:	18 03                	sbb    %al,(%ebx)
c0042fda:	00 00                	add    %al,(%eax)
c0042fdc:	93                   	xchg   %eax,%ebx
c0042fdd:	e9 ff ff 6c 00       	jmp    c0712fe1 <mem_seg_descriptor+0x6c8381>
c0042fe2:	00 00                	add    %al,(%eax)
c0042fe4:	00 41 0e             	add    %al,0xe(%ecx)
c0042fe7:	08 85 02 42 0d 05    	or     %al,0x50d4202(%ebp)
c0042fed:	02 68 c5             	add    -0x3b(%eax),%ch
c0042ff0:	0c 04                	or     $0x4,%al
c0042ff2:	04 00                	add    $0x0,%al
c0042ff4:	1c 00                	sbb    $0x0,%al
c0042ff6:	00 00                	add    %al,(%eax)
c0042ff8:	38 03                	cmp    %al,(%ebx)
c0042ffa:	00 00                	add    %al,(%eax)
c0042ffc:	df e9                	fucomip %st(1),%st
c0042ffe:	ff                   	(bad)  
c0042fff:	ff                   	(bad)  
c0043000:	3e 00 00             	add    %al,%ds:(%eax)
c0043003:	00 00                	add    %al,(%eax)
c0043005:	41                   	inc    %ecx
c0043006:	0e                   	push   %cs
c0043007:	08 85 02 42 0d 05    	or     %al,0x50d4202(%ebp)
c004300d:	7a c5                	jp     c0042fd4 <__x86.get_pc_thunk.bx+0x319>
c004300f:	0c 04                	or     $0x4,%al
c0043011:	04 00                	add    $0x0,%al
c0043013:	00 1c 00             	add    %bl,(%eax,%eax,1)
c0043016:	00 00                	add    %al,(%eax)
c0043018:	58                   	pop    %eax
c0043019:	03 00                	add    (%eax),%eax
c004301b:	00 fd                	add    %bh,%ch
c004301d:	e9 ff ff 40 00       	jmp    c0453021 <mem_seg_descriptor+0x4083c1>
c0043022:	00 00                	add    %al,(%eax)
c0043024:	00 41 0e             	add    %al,0xe(%ecx)
c0043027:	08 85 02 42 0d 05    	or     %al,0x50d4202(%ebp)
c004302d:	7c c5                	jl     c0042ff4 <__x86.get_pc_thunk.bx+0x339>
c004302f:	0c 04                	or     $0x4,%al
c0043031:	04 00                	add    $0x0,%al
c0043033:	00 20                	add    %ah,(%eax)
c0043035:	00 00                	add    %al,(%eax)
c0043037:	00 78 03             	add    %bh,0x3(%eax)
c004303a:	00 00                	add    %al,(%eax)
c004303c:	1d ea ff ff b1       	sbb    $0xb1ffffea,%eax
c0043041:	00 00                	add    %al,(%eax)
c0043043:	00 00                	add    %al,(%eax)
c0043045:	41                   	inc    %ecx
c0043046:	0e                   	push   %cs
c0043047:	08 85 02 42 0d 05    	or     %al,0x50d4202(%ebp)
c004304d:	44                   	inc    %esp
c004304e:	83 03 02             	addl   $0x2,(%ebx)
c0043051:	a8 c3                	test   $0xc3,%al
c0043053:	41                   	inc    %ecx
c0043054:	c5 0c 04             	lds    (%esp,%eax,1),%ecx
c0043057:	04 28                	add    $0x28,%al
c0043059:	00 00                	add    %al,(%eax)
c004305b:	00 9c 03 00 00 aa ea 	add    %bl,-0x15560000(%ebx,%eax,1)
c0043062:	ff                   	(bad)  
c0043063:	ff 58 01             	lcall  *0x1(%eax)
c0043066:	00 00                	add    %al,(%eax)
c0043068:	00 41 0e             	add    %al,0xe(%ecx)
c004306b:	08 85 02 42 0d 05    	or     %al,0x50d4202(%ebp)
c0043071:	45                   	inc    %ebp
c0043072:	86 03                	xchg   %al,(%ebx)
c0043074:	83 04 03 4d          	addl   $0x4d,(%ebx,%eax,1)
c0043078:	01 c3                	add    %eax,%ebx
c004307a:	41                   	inc    %ecx
c004307b:	c6 41 c5 0c          	movb   $0xc,-0x3b(%ecx)
c004307f:	04 04                	add    $0x4,%al
c0043081:	00 00                	add    %al,(%eax)
c0043083:	00 20                	add    %ah,(%eax)
c0043085:	00 00                	add    %al,(%eax)
c0043087:	00 c8                	add    %cl,%al
c0043089:	03 00                	add    (%eax),%eax
c004308b:	00 d6                	add    %dl,%dh
c004308d:	eb ff                	jmp    c004308e <__x86.get_pc_thunk.bx+0x3d3>
c004308f:	ff 64 00 00          	jmp    *0x0(%eax,%eax,1)
c0043093:	00 00                	add    %al,(%eax)
c0043095:	41                   	inc    %ecx
c0043096:	0e                   	push   %cs
c0043097:	08 85 02 42 0d 05    	or     %al,0x50d4202(%ebp)
c004309d:	44                   	inc    %esp
c004309e:	83 03 02             	addl   $0x2,(%ebx)
c00430a1:	5b                   	pop    %ebx
c00430a2:	c3                   	ret    
c00430a3:	41                   	inc    %ecx
c00430a4:	c5 0c 04             	lds    (%esp,%eax,1),%ecx
c00430a7:	04 1c                	add    $0x1c,%al
c00430a9:	00 00                	add    %al,(%eax)
c00430ab:	00 ec                	add    %ch,%ah
c00430ad:	03 00                	add    (%eax),%eax
c00430af:	00 16                	add    %dl,(%esi)
c00430b1:	ec                   	in     (%dx),%al
c00430b2:	ff                   	(bad)  
c00430b3:	ff c7                	inc    %edi
c00430b5:	00 00                	add    %al,(%eax)
c00430b7:	00 00                	add    %al,(%eax)
c00430b9:	41                   	inc    %ecx
c00430ba:	0e                   	push   %cs
c00430bb:	08 85 02 42 0d 05    	or     %al,0x50d4202(%ebp)
c00430c1:	02 c3                	add    %bl,%al
c00430c3:	c5 0c 04             	lds    (%esp,%eax,1),%ecx
c00430c6:	04 00                	add    $0x0,%al
c00430c8:	20 00                	and    %al,(%eax)
c00430ca:	00 00                	add    %al,(%eax)
c00430cc:	0c 04                	or     $0x4,%al
c00430ce:	00 00                	add    %al,(%eax)
c00430d0:	bd ec ff ff 5a       	mov    $0x5affffec,%ebp
c00430d5:	00 00                	add    %al,(%eax)
c00430d7:	00 00                	add    %al,(%eax)
c00430d9:	41                   	inc    %ecx
c00430da:	0e                   	push   %cs
c00430db:	08 85 02 42 0d 05    	or     %al,0x50d4202(%ebp)
c00430e1:	44                   	inc    %esp
c00430e2:	83 03 02             	addl   $0x2,(%ebx)
c00430e5:	52                   	push   %edx
c00430e6:	c5 c3 0c             	(bad)  
c00430e9:	04 04                	add    $0x4,%al
c00430eb:	00 20                	add    %ah,(%eax)
c00430ed:	00 00                	add    %al,(%eax)
c00430ef:	00 30                	add    %dh,(%eax)
c00430f1:	04 00                	add    $0x0,%al
c00430f3:	00 f3                	add    %dh,%bl
c00430f5:	ec                   	in     (%dx),%al
c00430f6:	ff                   	(bad)  
c00430f7:	ff 60 00             	jmp    *0x0(%eax)
c00430fa:	00 00                	add    %al,(%eax)
c00430fc:	00 41 0e             	add    %al,0xe(%ecx)
c00430ff:	08 85 02 42 0d 05    	or     %al,0x50d4202(%ebp)
c0043105:	44                   	inc    %esp
c0043106:	83 03 02             	addl   $0x2,(%ebx)
c0043109:	58                   	pop    %eax
c004310a:	c5 c3 0c             	(bad)  
c004310d:	04 04                	add    $0x4,%al
c004310f:	00 1c 00             	add    %bl,(%eax,%eax,1)
c0043112:	00 00                	add    %al,(%eax)
c0043114:	54                   	push   %esp
c0043115:	04 00                	add    $0x0,%al
c0043117:	00 2f                	add    %ch,(%edi)
c0043119:	ed                   	in     (%dx),%eax
c004311a:	ff                   	(bad)  
c004311b:	ff 33                	pushl  (%ebx)
c004311d:	02 00                	add    (%eax),%al
c004311f:	00 00                	add    %al,(%eax)
c0043121:	41                   	inc    %ecx
c0043122:	0e                   	push   %cs
c0043123:	08 85 02 42 0d 05    	or     %al,0x50d4202(%ebp)
c0043129:	03 2f                	add    (%edi),%ebp
c004312b:	02 c5                	add    %ch,%al
c004312d:	0c 04                	or     $0x4,%al
c004312f:	04 20                	add    $0x20,%al
c0043131:	00 00                	add    %al,(%eax)
c0043133:	00 74 04 00          	add    %dh,0x0(%esp,%eax,1)
c0043137:	00 42 ef             	add    %al,-0x11(%edx)
c004313a:	ff                   	(bad)  
c004313b:	ff 0e                	decl   (%esi)
c004313d:	04 00                	add    $0x0,%al
c004313f:	00 00                	add    %al,(%eax)
c0043141:	41                   	inc    %ecx
c0043142:	0e                   	push   %cs
c0043143:	08 85 02 42 0d 05    	or     %al,0x50d4202(%ebp)
c0043149:	44                   	inc    %esp
c004314a:	83 03 03             	addl   $0x3,(%ebx)
c004314d:	06                   	push   %es
c004314e:	04 c5                	add    $0xc5,%al
c0043150:	c3                   	ret    
c0043151:	0c 04                	or     $0x4,%al
c0043153:	04 1c                	add    $0x1c,%al
c0043155:	00 00                	add    %al,(%eax)
c0043157:	00 98 04 00 00 2c    	add    %bl,0x2c000004(%eax)
c004315d:	f3 ff                	repz (bad) 
c004315f:	ff 33                	pushl  (%ebx)
c0043161:	00 00                	add    %al,(%eax)
c0043163:	00 00                	add    %al,(%eax)
c0043165:	41                   	inc    %ecx
c0043166:	0e                   	push   %cs
c0043167:	08 85 02 42 0d 05    	or     %al,0x50d4202(%ebp)
c004316d:	6f                   	outsl  %ds:(%esi),(%dx)
c004316e:	c5 0c 04             	lds    (%esp,%eax,1),%ecx
c0043171:	04 00                	add    $0x0,%al
c0043173:	00 1c 00             	add    %bl,(%eax,%eax,1)
c0043176:	00 00                	add    %al,(%eax)
c0043178:	b8 04 00 00 3f       	mov    $0x3f000004,%eax
c004317d:	f3 ff                	repz (bad) 
c004317f:	ff 33                	pushl  (%ebx)
c0043181:	00 00                	add    %al,(%eax)
c0043183:	00 00                	add    %al,(%eax)
c0043185:	41                   	inc    %ecx
c0043186:	0e                   	push   %cs
c0043187:	08 85 02 42 0d 05    	or     %al,0x50d4202(%ebp)
c004318d:	6f                   	outsl  %ds:(%esi),(%dx)
c004318e:	c5 0c 04             	lds    (%esp,%eax,1),%ecx
c0043191:	04 00                	add    $0x0,%al
c0043193:	00 1c 00             	add    %bl,(%eax,%eax,1)
c0043196:	00 00                	add    %al,(%eax)
c0043198:	d8 04 00             	fadds  (%eax,%eax,1)
c004319b:	00 52 f3             	add    %dl,-0xd(%edx)
c004319e:	ff                   	(bad)  
c004319f:	ff                   	(bad)  
c00431a0:	39 00                	cmp    %eax,(%eax)
c00431a2:	00 00                	add    %al,(%eax)
c00431a4:	00 41 0e             	add    %al,0xe(%ecx)
c00431a7:	08 85 02 42 0d 05    	or     %al,0x50d4202(%ebp)
c00431ad:	75 c5                	jne    c0043174 <__x86.get_pc_thunk.bx+0x4b9>
c00431af:	0c 04                	or     $0x4,%al
c00431b1:	04 00                	add    $0x0,%al
c00431b3:	00 28                	add    %ch,(%eax)
c00431b5:	00 00                	add    %al,(%eax)
c00431b7:	00 f8                	add    %bh,%al
c00431b9:	04 00                	add    $0x0,%al
c00431bb:	00 6b f3             	add    %ch,-0xd(%ebx)
c00431be:	ff                   	(bad)  
c00431bf:	ff 4f 01             	decl   0x1(%edi)
c00431c2:	00 00                	add    %al,(%eax)
c00431c4:	00 41 0e             	add    %al,0xe(%ecx)
c00431c7:	08 85 02 42 0d 05    	or     %al,0x50d4202(%ebp)
c00431cd:	45                   	inc    %ebp
c00431ce:	86 03                	xchg   %al,(%ebx)
c00431d0:	83 04 03 44          	addl   $0x44,(%ebx,%eax,1)
c00431d4:	01 c3                	add    %eax,%ebx
c00431d6:	41                   	inc    %ecx
c00431d7:	c6 41 c5 0c          	movb   $0xc,-0x3b(%ecx)
c00431db:	04 04                	add    $0x4,%al
c00431dd:	00 00                	add    %al,(%eax)
c00431df:	00 28                	add    %ch,(%eax)
c00431e1:	00 00                	add    %al,(%eax)
c00431e3:	00 24 05 00 00 8e f4 	add    %ah,-0xb720000(,%eax,1)
c00431ea:	ff                   	(bad)  
c00431eb:	ff                   	(bad)  
c00431ec:	fa                   	cli    
c00431ed:	00 00                	add    %al,(%eax)
c00431ef:	00 00                	add    %al,(%eax)
c00431f1:	41                   	inc    %ecx
c00431f2:	0e                   	push   %cs
c00431f3:	08 85 02 42 0d 05    	or     %al,0x50d4202(%ebp)
c00431f9:	46                   	inc    %esi
c00431fa:	87 03                	xchg   %eax,(%ebx)
c00431fc:	86 04 83             	xchg   %al,(%ebx,%eax,4)
c00431ff:	05 02 ed c3 41       	add    $0x41c3ed02,%eax
c0043204:	c6 41 c7 41          	movb   $0x41,-0x39(%ecx)
c0043208:	c5 0c 04             	lds    (%esp,%eax,1),%ecx
c004320b:	04 20                	add    $0x20,%al
c004320d:	00 00                	add    %al,(%eax)
c004320f:	00 50 05             	add    %dl,0x5(%eax)
c0043212:	00 00                	add    %al,(%eax)
c0043214:	5c                   	pop    %esp
c0043215:	f5                   	cmc    
c0043216:	ff                   	(bad)  
c0043217:	ff 99 00 00 00 00    	lcall  *0x0(%ecx)
c004321d:	41                   	inc    %ecx
c004321e:	0e                   	push   %cs
c004321f:	08 85 02 42 0d 05    	or     %al,0x50d4202(%ebp)
c0043225:	44                   	inc    %esp
c0043226:	83 03 02             	addl   $0x2,(%ebx)
c0043229:	91                   	xchg   %eax,%ecx
c004322a:	c5 c3 0c             	(bad)  
c004322d:	04 04                	add    $0x4,%al
c004322f:	00 1c 00             	add    %bl,(%eax,%eax,1)
c0043232:	00 00                	add    %al,(%eax)
c0043234:	74 05                	je     c004323b <__x86.get_pc_thunk.bx+0x580>
c0043236:	00 00                	add    %al,(%eax)
c0043238:	d1 f5                	shl    %ebp
c004323a:	ff                   	(bad)  
c004323b:	ff 29                	ljmp   *(%ecx)
c004323d:	00 00                	add    %al,(%eax)
c004323f:	00 00                	add    %al,(%eax)
c0043241:	41                   	inc    %ecx
c0043242:	0e                   	push   %cs
c0043243:	08 85 02 42 0d 05    	or     %al,0x50d4202(%ebp)
c0043249:	65 c5 0c 04          	lds    %gs:(%esp,%eax,1),%ecx
c004324d:	04 00                	add    $0x0,%al
c004324f:	00 1c 00             	add    %bl,(%eax,%eax,1)
c0043252:	00 00                	add    %al,(%eax)
c0043254:	94                   	xchg   %eax,%esp
c0043255:	05 00 00 da f5       	add    $0xf5da0000,%eax
c004325a:	ff                   	(bad)  
c004325b:	ff 27                	jmp    *(%edi)
c004325d:	00 00                	add    %al,(%eax)
c004325f:	00 00                	add    %al,(%eax)
c0043261:	41                   	inc    %ecx
c0043262:	0e                   	push   %cs
c0043263:	08 85 02 42 0d 05    	or     %al,0x50d4202(%ebp)
c0043269:	63 c5                	arpl   %ax,%bp
c004326b:	0c 04                	or     $0x4,%al
c004326d:	04 00                	add    $0x0,%al
c004326f:	00 1c 00             	add    %bl,(%eax,%eax,1)
c0043272:	00 00                	add    %al,(%eax)
c0043274:	b4 05                	mov    $0x5,%ah
c0043276:	00 00                	add    %al,(%eax)
c0043278:	e1 f5                	loope  c004326f <__x86.get_pc_thunk.bx+0x5b4>
c004327a:	ff                   	(bad)  
c004327b:	ff 29                	ljmp   *(%ecx)
c004327d:	00 00                	add    %al,(%eax)
c004327f:	00 00                	add    %al,(%eax)
c0043281:	41                   	inc    %ecx
c0043282:	0e                   	push   %cs
c0043283:	08 85 02 42 0d 05    	or     %al,0x50d4202(%ebp)
c0043289:	65 c5 0c 04          	lds    %gs:(%esp,%eax,1),%ecx
c004328d:	04 00                	add    $0x0,%al
c004328f:	00 20                	add    %ah,(%eax)
c0043291:	00 00                	add    %al,(%eax)
c0043293:	00 d4                	add    %dl,%ah
c0043295:	05 00 00 ea f5       	add    $0xf5ea0000,%eax
c004329a:	ff                   	(bad)  
c004329b:	ff 2a                	ljmp   *(%edx)
c004329d:	00 00                	add    %al,(%eax)
c004329f:	00 00                	add    %al,(%eax)
c00432a1:	41                   	inc    %ecx
c00432a2:	0e                   	push   %cs
c00432a3:	08 85 02 42 0d 05    	or     %al,0x50d4202(%ebp)
c00432a9:	41                   	inc    %ecx
c00432aa:	87 03                	xchg   %eax,(%ebx)
c00432ac:	64 c7 41 c5 0c 04 04 	movl   $0x4040c,%fs:-0x3b(%ecx)
c00432b3:	00 
c00432b4:	20 00                	and    %al,(%eax)
c00432b6:	00 00                	add    %al,(%eax)
c00432b8:	f8                   	clc    
c00432b9:	05 00 00 f0 f5       	add    $0xf5f00000,%eax
c00432be:	ff                   	(bad)  
c00432bf:	ff 2a                	ljmp   *(%edx)
c00432c1:	00 00                	add    %al,(%eax)
c00432c3:	00 00                	add    %al,(%eax)
c00432c5:	41                   	inc    %ecx
c00432c6:	0e                   	push   %cs
c00432c7:	08 85 02 42 0d 05    	or     %al,0x50d4202(%ebp)
c00432cd:	41                   	inc    %ecx
c00432ce:	87 03                	xchg   %eax,(%ebx)
c00432d0:	64 c7 41 c5 0c 04 04 	movl   $0x4040c,%fs:-0x3b(%ecx)
c00432d7:	00 
c00432d8:	1c 00                	sbb    $0x0,%al
c00432da:	00 00                	add    %al,(%eax)
c00432dc:	1c 06                	sbb    $0x6,%al
c00432de:	00 00                	add    %al,(%eax)
c00432e0:	f6 f5                	div    %ch
c00432e2:	ff                   	(bad)  
c00432e3:	ff 11                	call   *(%ecx)
c00432e5:	00 00                	add    %al,(%eax)
c00432e7:	00 00                	add    %al,(%eax)
c00432e9:	41                   	inc    %ecx
c00432ea:	0e                   	push   %cs
c00432eb:	08 85 02 42 0d 05    	or     %al,0x50d4202(%ebp)
c00432f1:	4d                   	dec    %ebp
c00432f2:	c5 0c 04             	lds    (%esp,%eax,1),%ecx
c00432f5:	04 00                	add    $0x0,%al
c00432f7:	00 1c 00             	add    %bl,(%eax,%eax,1)
c00432fa:	00 00                	add    %al,(%eax)
c00432fc:	3c 06                	cmp    $0x6,%al
c00432fe:	00 00                	add    %al,(%eax)
c0043300:	e7 f5                	out    %eax,$0xf5
c0043302:	ff                   	(bad)  
c0043303:	ff 11                	call   *(%ecx)
c0043305:	00 00                	add    %al,(%eax)
c0043307:	00 00                	add    %al,(%eax)
c0043309:	41                   	inc    %ecx
c004330a:	0e                   	push   %cs
c004330b:	08 85 02 42 0d 05    	or     %al,0x50d4202(%ebp)
c0043311:	4d                   	dec    %ebp
c0043312:	c5 0c 04             	lds    (%esp,%eax,1),%ecx
c0043315:	04 00                	add    $0x0,%al
c0043317:	00 1c 00             	add    %bl,(%eax,%eax,1)
c004331a:	00 00                	add    %al,(%eax)
c004331c:	5c                   	pop    %esp
c004331d:	06                   	push   %es
c004331e:	00 00                	add    %al,(%eax)
c0043320:	d8 f5                	fdiv   %st(5),%st
c0043322:	ff                   	(bad)  
c0043323:	ff 11                	call   *(%ecx)
c0043325:	00 00                	add    %al,(%eax)
c0043327:	00 00                	add    %al,(%eax)
c0043329:	41                   	inc    %ecx
c004332a:	0e                   	push   %cs
c004332b:	08 85 02 42 0d 05    	or     %al,0x50d4202(%ebp)
c0043331:	4d                   	dec    %ebp
c0043332:	c5 0c 04             	lds    (%esp,%eax,1),%ecx
c0043335:	04 00                	add    $0x0,%al
c0043337:	00 1c 00             	add    %bl,(%eax,%eax,1)
c004333a:	00 00                	add    %al,(%eax)
c004333c:	7c 06                	jl     c0043344 <__x86.get_pc_thunk.bx+0x689>
c004333e:	00 00                	add    %al,(%eax)
c0043340:	c9                   	leave  
c0043341:	f5                   	cmc    
c0043342:	ff                   	(bad)  
c0043343:	ff 33                	pushl  (%ebx)
c0043345:	00 00                	add    %al,(%eax)
c0043347:	00 00                	add    %al,(%eax)
c0043349:	41                   	inc    %ecx
c004334a:	0e                   	push   %cs
c004334b:	08 85 02 42 0d 05    	or     %al,0x50d4202(%ebp)
c0043351:	6f                   	outsl  %ds:(%esi),(%dx)
c0043352:	c5 0c 04             	lds    (%esp,%eax,1),%ecx
c0043355:	04 00                	add    $0x0,%al
c0043357:	00 1c 00             	add    %bl,(%eax,%eax,1)
c004335a:	00 00                	add    %al,(%eax)
c004335c:	9c                   	pushf  
c004335d:	06                   	push   %es
c004335e:	00 00                	add    %al,(%eax)
c0043360:	dc f5                	fdiv   %st,%st(5)
c0043362:	ff                   	(bad)  
c0043363:	ff                   	(bad)  
c0043364:	3a 00                	cmp    (%eax),%al
c0043366:	00 00                	add    %al,(%eax)
c0043368:	00 41 0e             	add    %al,0xe(%ecx)
c004336b:	08 85 02 42 0d 05    	or     %al,0x50d4202(%ebp)
c0043371:	76 c5                	jbe    c0043338 <__x86.get_pc_thunk.bx+0x67d>
c0043373:	0c 04                	or     $0x4,%al
c0043375:	04 00                	add    $0x0,%al
c0043377:	00 1c 00             	add    %bl,(%eax,%eax,1)
c004337a:	00 00                	add    %al,(%eax)
c004337c:	bc 06 00 00 f6       	mov    $0xf6000006,%esp
c0043381:	f5                   	cmc    
c0043382:	ff                   	(bad)  
c0043383:	ff 20                	jmp    *(%eax)
c0043385:	00 00                	add    %al,(%eax)
c0043387:	00 00                	add    %al,(%eax)
c0043389:	41                   	inc    %ecx
c004338a:	0e                   	push   %cs
c004338b:	08 85 02 42 0d 05    	or     %al,0x50d4202(%ebp)
c0043391:	5c                   	pop    %esp
c0043392:	c5 0c 04             	lds    (%esp,%eax,1),%ecx
c0043395:	04 00                	add    $0x0,%al
c0043397:	00 1c 00             	add    %bl,(%eax,%eax,1)
c004339a:	00 00                	add    %al,(%eax)
c004339c:	dc 06                	faddl  (%esi)
c004339e:	00 00                	add    %al,(%eax)
c00433a0:	f6 f5                	div    %ch
c00433a2:	ff                   	(bad)  
c00433a3:	ff 71 00             	pushl  0x0(%ecx)
c00433a6:	00 00                	add    %al,(%eax)
c00433a8:	00 41 0e             	add    %al,0xe(%ecx)
c00433ab:	08 85 02 42 0d 05    	or     %al,0x50d4202(%ebp)
c00433b1:	02 6d c5             	add    -0x3b(%ebp),%ch
c00433b4:	0c 04                	or     $0x4,%al
c00433b6:	04 00                	add    $0x0,%al
c00433b8:	1c 00                	sbb    $0x0,%al
c00433ba:	00 00                	add    %al,(%eax)
c00433bc:	fc                   	cld    
c00433bd:	06                   	push   %es
c00433be:	00 00                	add    %al,(%eax)
c00433c0:	47                   	inc    %edi
c00433c1:	f6 ff                	idiv   %bh
c00433c3:	ff 44 00 00          	incl   0x0(%eax,%eax,1)
c00433c7:	00 00                	add    %al,(%eax)
c00433c9:	41                   	inc    %ecx
c00433ca:	0e                   	push   %cs
c00433cb:	08 85 02 42 0d 05    	or     %al,0x50d4202(%ebp)
c00433d1:	02 40 c5             	add    -0x3b(%eax),%al
c00433d4:	0c 04                	or     $0x4,%al
c00433d6:	04 00                	add    $0x0,%al
c00433d8:	1c 00                	sbb    $0x0,%al
c00433da:	00 00                	add    %al,(%eax)
c00433dc:	1c 07                	sbb    $0x7,%al
c00433de:	00 00                	add    %al,(%eax)
c00433e0:	6b f6 ff             	imul   $0xffffffff,%esi,%esi
c00433e3:	ff 4a 00             	decl   0x0(%edx)
c00433e6:	00 00                	add    %al,(%eax)
c00433e8:	00 41 0e             	add    %al,0xe(%ecx)
c00433eb:	08 85 02 42 0d 05    	or     %al,0x50d4202(%ebp)
c00433f1:	02 46 c5             	add    -0x3b(%esi),%al
c00433f4:	0c 04                	or     $0x4,%al
c00433f6:	04 00                	add    $0x0,%al
c00433f8:	1c 00                	sbb    $0x0,%al
c00433fa:	00 00                	add    %al,(%eax)
c00433fc:	3c 07                	cmp    $0x7,%al
c00433fe:	00 00                	add    %al,(%eax)
c0043400:	95                   	xchg   %eax,%ebp
c0043401:	f6 ff                	idiv   %bh
c0043403:	ff 36                	pushl  (%esi)
c0043405:	00 00                	add    %al,(%eax)
c0043407:	00 00                	add    %al,(%eax)
c0043409:	41                   	inc    %ecx
c004340a:	0e                   	push   %cs
c004340b:	08 85 02 42 0d 05    	or     %al,0x50d4202(%ebp)
c0043411:	72 c5                	jb     c00433d8 <__x86.get_pc_thunk.bx+0x71d>
c0043413:	0c 04                	or     $0x4,%al
c0043415:	04 00                	add    $0x0,%al
	...

Disassembly of section .rodata:

c0043418 <.rodata>:
c0043418:	49                   	dec    %ecx
c0043419:	53                   	push   %ebx
c004341a:	52                   	push   %edx
c004341b:	20 49 6e             	and    %cl,0x6e(%ecx)
c004341e:	74 65                	je     c0043485 <__x86.get_pc_thunk.bx+0x7ca>
c0043420:	72 72                	jb     c0043494 <__x86.get_pc_thunk.bx+0x7d9>
c0043422:	75 70                	jne    c0043494 <__x86.get_pc_thunk.bx+0x7d9>
c0043424:	74 20                	je     c0043446 <__x86.get_pc_thunk.bx+0x78b>
c0043426:	44                   	inc    %esp
c0043427:	69 73 70 61 74 63 68 	imul   $0x68637461,0x70(%ebx),%esi
c004342e:	65 72 0a             	gs jb  c004343b <__x86.get_pc_thunk.bx+0x780>
c0043431:	00 49 53             	add    %cl,0x53(%ecx)
c0043434:	52                   	push   %edx
c0043435:	20 48 61             	and    %cl,0x61(%eax)
c0043438:	6e                   	outsb  %ds:(%esi),(%dx)
c0043439:	64 6c                	fs insb (%dx),%es:(%edi)
c004343b:	65 20 49 6e          	and    %cl,%gs:0x6e(%ecx)
c004343f:	74 65                	je     c00434a6 <__x86.get_pc_thunk.bx+0x7eb>
c0043441:	72 72                	jb     c00434b5 <__x86.get_pc_thunk.bx+0x7fa>
c0043443:	75 70                	jne    c00434b5 <__x86.get_pc_thunk.bx+0x7fa>
c0043445:	74 3a                	je     c0043481 <__x86.get_pc_thunk.bx+0x7c6>
c0043447:	20 25 64 0a 00 55    	and    %ah,0x55000a64
c004344d:	6e                   	outsb  %ds:(%esi),(%dx)
c004344e:	68 61 6e 64 6c       	push   $0x6c646e61
c0043453:	65 64 20 49 6e       	gs and %cl,%fs:0x6e(%ecx)
c0043458:	74 65                	je     c00434bf <__x86.get_pc_thunk.bx+0x804>
c004345a:	72 72                	jb     c00434ce <__x86.get_pc_thunk.bx+0x813>
c004345c:	75 70                	jne    c00434ce <__x86.get_pc_thunk.bx+0x813>
c004345e:	74 3a                	je     c004349a <__x86.get_pc_thunk.bx+0x7df>
c0043460:	20 25 64 0a 00 00    	and    %ah,0xa64
c0043466:	00 00                	add    %al,(%eax)
c0043468:	38 32                	cmp    %dh,(%edx)
c004346a:	35 39 41 20 43       	xor    $0x43204139,%eax
c004346f:	68 69 70 20 49       	push   $0x49207069
c0043474:	6e                   	outsb  %ds:(%esi),(%dx)
c0043475:	69 74 69 74 6c 69 7a 	imul   $0x617a696c,0x74(%ecx,%ebp,2),%esi
c004347c:	61 
c004347d:	74 69                	je     c00434e8 <__x86.get_pc_thunk.bx+0x82d>
c004347f:	6f                   	outsl  %ds:(%esi),(%dx)
c0043480:	6e                   	outsb  %ds:(%esi),(%dx)
c0043481:	20 44 6f 6e          	and    %al,0x6e(%edi,%ebp,2)
c0043485:	65 0a 00             	or     %gs:(%eax),%al
c0043488:	49                   	dec    %ecx
c0043489:	6e                   	outsb  %ds:(%esi),(%dx)
c004348a:	74 65                	je     c00434f1 <__x86.get_pc_thunk.bx+0x836>
c004348c:	72 72                	jb     c0043500 <__x86.get_pc_thunk.bx+0x845>
c004348e:	75 70                	jne    c0043500 <__x86.get_pc_thunk.bx+0x845>
c0043490:	74 20                	je     c00434b2 <__x86.get_pc_thunk.bx+0x7f7>
c0043492:	54                   	push   %esp
c0043493:	65 73 74             	gs jae c004350a <__x86.get_pc_thunk.bx+0x84f>
c0043496:	0a 00                	or     (%eax),%al
c0043498:	25 63 00 00 30       	and    $0x30000063,%eax
c004349d:	31 32                	xor    %esi,(%edx)
c004349f:	33 34 35 36 37 38 39 	xor    0x39383736(,%esi,1),%esi
c00434a6:	41                   	inc    %ecx
c00434a7:	42                   	inc    %edx
c00434a8:	43                   	inc    %ebx
c00434a9:	44                   	inc    %esp
c00434aa:	45                   	inc    %ebp
c00434ab:	46                   	inc    %esi
c00434ac:	47                   	inc    %edi
c00434ad:	48                   	dec    %eax
c00434ae:	49                   	dec    %ecx
c00434af:	4a                   	dec    %edx
c00434b0:	4b                   	dec    %ebx
c00434b1:	4c                   	dec    %esp
c00434b2:	4d                   	dec    %ebp
c00434b3:	4e                   	dec    %esi
c00434b4:	4f                   	dec    %edi
c00434b5:	50                   	push   %eax
c00434b6:	51                   	push   %ecx
c00434b7:	52                   	push   %edx
c00434b8:	53                   	push   %ebx
c00434b9:	54                   	push   %esp
c00434ba:	55                   	push   %ebp
c00434bb:	56                   	push   %esi
c00434bc:	57                   	push   %edi
c00434bd:	58                   	pop    %eax
c00434be:	59                   	pop    %ecx
c00434bf:	5a                   	pop    %edx
c00434c0:	00 00                	add    %al,(%eax)
c00434c2:	00 00                	add    %al,(%eax)
c00434c4:	30 31                	xor    %dh,(%ecx)
c00434c6:	32 33                	xor    (%ebx),%dh
c00434c8:	34 35                	xor    $0x35,%al
c00434ca:	36 37                	ss aaa 
c00434cc:	38 39                	cmp    %bh,(%ecx)
c00434ce:	61                   	popa   
c00434cf:	62 63 64             	bound  %esp,0x64(%ebx)
c00434d2:	65 66 67 68 69 6a    	gs addr16 pushw $0x6a69
c00434d8:	6b 6c 6d 6e 6f       	imul   $0x6f,0x6e(%ebp,%ebp,2),%ebp
c00434dd:	70 71                	jo     c0043550 <__x86.get_pc_thunk.bx+0x895>
c00434df:	72 73                	jb     c0043554 <__x86.get_pc_thunk.bx+0x899>
c00434e1:	74 75                	je     c0043558 <__x86.get_pc_thunk.bx+0x89d>
c00434e3:	76 77                	jbe    c004355c <__x86.get_pc_thunk.bx+0x8a1>
c00434e5:	78 79                	js     c0043560 <__x86.get_pc_thunk.bx+0x8a5>
c00434e7:	7a 00                	jp     c00434e9 <__x86.get_pc_thunk.bx+0x82e>
c00434e9:	00 00                	add    %al,(%eax)
c00434eb:	00 1e                	add    %bl,(%esi)
c00434ed:	ea ff ff 30 ea ff ff 	ljmp   $0xffff,$0xea30ffff
c00434f4:	30 ea                	xor    %ch,%dl
c00434f6:	ff                   	(bad)  
c00434f7:	ff 24 ea             	jmp    *(%edx,%ebp,8)
c00434fa:	ff                   	(bad)  
c00434fb:	ff 30                	pushl  (%eax)
c00434fd:	ea ff ff 30 ea ff ff 	ljmp   $0xffff,$0xea30ffff
c0043504:	30 ea                	xor    %ch,%dl
c0043506:	ff                   	(bad)  
c0043507:	ff 30                	pushl  (%eax)
c0043509:	ea ff ff 30 ea ff ff 	ljmp   $0xffff,$0xea30ffff
c0043510:	30 ea                	xor    %ch,%dl
c0043512:	ff                   	(bad)  
c0043513:	ff 30                	pushl  (%eax)
c0043515:	ea ff ff 18 ea ff ff 	ljmp   $0xffff,$0xea18ffff
c004351c:	30 ea                	xor    %ch,%dl
c004351e:	ff                   	(bad)  
c004351f:	ff 12                	call   *(%edx)
c0043521:	ea ff ff 30 ea ff ff 	ljmp   $0xffff,$0xea30ffff
c0043528:	30 ea                	xor    %ch,%dl
c004352a:	ff                   	(bad)  
c004352b:	ff 2a                	ljmp   *(%edx)
c004352d:	ea ff ff a6 ec ff ff 	ljmp   $0xffff,$0xeca6ffff
c0043534:	4b                   	dec    %ebx
c0043535:	ed                   	in     (%dx),%eax
c0043536:	ff                   	(bad)  
c0043537:	ff 4b ed             	decl   -0x13(%ebx)
c004353a:	ff                   	(bad)  
c004353b:	ff 4b ed             	decl   -0x13(%ebx)
c004353e:	ff                   	(bad)  
c004353f:	ff 4b ed             	decl   -0x13(%ebx)
c0043542:	ff                   	(bad)  
c0043543:	ff 4b ed             	decl   -0x13(%ebx)
c0043546:	ff                   	(bad)  
c0043547:	ff 4b ed             	decl   -0x13(%ebx)
c004354a:	ff                   	(bad)  
c004354b:	ff 4b ed             	decl   -0x13(%ebx)
c004354e:	ff                   	(bad)  
c004354f:	ff 4b ed             	decl   -0x13(%ebx)
c0043552:	ff                   	(bad)  
c0043553:	ff 4b ed             	decl   -0x13(%ebx)
c0043556:	ff                   	(bad)  
c0043557:	ff 04 ed ff ff 2f eb 	incl   -0x14d00001(,%ebp,8)
c004355e:	ff                   	(bad)  
c004355f:	ff d3                	call   *%ebx
c0043561:	ec                   	in     (%dx),%al
c0043562:	ff                   	(bad)  
c0043563:	ff 4b ed             	decl   -0x13(%ebx)
c0043566:	ff                   	(bad)  
c0043567:	ff 4b ed             	decl   -0x13(%ebx)
c004356a:	ff                   	(bad)  
c004356b:	ff 4b ed             	decl   -0x13(%ebx)
c004356e:	ff                   	(bad)  
c004356f:	ff 4b ed             	decl   -0x13(%ebx)
c0043572:	ff                   	(bad)  
c0043573:	ff d3                	call   *%ebx
c0043575:	ec                   	in     (%dx),%al
c0043576:	ff                   	(bad)  
c0043577:	ff 4b ed             	decl   -0x13(%ebx)
c004357a:	ff                   	(bad)  
c004357b:	ff 4b ed             	decl   -0x13(%ebx)
c004357e:	ff                   	(bad)  
c004357f:	ff 4b ed             	decl   -0x13(%ebx)
c0043582:	ff                   	(bad)  
c0043583:	ff 4b ed             	decl   -0x13(%ebx)
c0043586:	ff                   	(bad)  
c0043587:	ff 2e                	ljmp   *(%esi)
c0043589:	ed                   	in     (%dx),%eax
c004358a:	ff                   	(bad)  
c004358b:	ff 37                	pushl  (%edi)
c004358d:	ec                   	in     (%dx),%al
c004358e:	ff                   	(bad)  
c004358f:	ff 64 ec ff          	jmp    *-0x1(%esp,%ebp,8)
c0043593:	ff 4b ed             	decl   -0x13(%ebx)
c0043596:	ff                   	(bad)  
c0043597:	ff 4b ed             	decl   -0x13(%ebx)
c004359a:	ff                   	(bad)  
c004359b:	ff 86 eb ff ff 4b    	incl   0x4bffffeb(%esi)
c00435a1:	ed                   	in     (%dx),%eax
c00435a2:	ff                   	(bad)  
c00435a3:	ff d7                	call   *%edi
c00435a5:	ec                   	in     (%dx),%al
c00435a6:	ff                   	(bad)  
c00435a7:	ff 4b ed             	decl   -0x13(%ebx)
c00435aa:	ff                   	(bad)  
c00435ab:	ff 4b ed             	decl   -0x13(%ebx)
c00435ae:	ff                   	(bad)  
c00435af:	ff a2 ec ff ff 54    	jmp    *0x54ffffec(%edx)
c00435b5:	68 69 73 20 69       	push   $0x69207369
c00435ba:	73 20                	jae    c00435dc <__x86.get_pc_thunk.bx+0x921>
c00435bc:	4d                   	dec    %ebp
c00435bd:	65 6d                	gs insl (%dx),%es:(%edi)
c00435bf:	6f                   	outsl  %ds:(%esi),(%dx)
c00435c0:	72 79                	jb     c004363b <__x86.get_pc_thunk.bx+0x980>
c00435c2:	20 53 65             	and    %dl,0x65(%ebx)
c00435c5:	67 6d                	insl   (%dx),%es:(%di)
c00435c7:	65 6e                	outsb  %gs:(%esi),(%dx)
c00435c9:	74 20                	je     c00435eb <__x86.get_pc_thunk.bx+0x930>
c00435cb:	49                   	dec    %ecx
c00435cc:	6e                   	outsb  %ds:(%esi),(%dx)
c00435cd:	66 6f                	outsw  %ds:(%esi),(%dx)
c00435cf:	0a 00                	or     (%eax),%al
c00435d1:	00 00                	add    %al,(%eax)
c00435d3:	00 42 61             	add    %al,0x61(%edx)
c00435d6:	73 65                	jae    c004363d <__x86.get_pc_thunk.bx+0x982>
c00435d8:	20 41 64             	and    %al,0x64(%ecx)
c00435db:	64 72 65             	fs jb  c0043643 <__x86.get_pc_thunk.bx+0x988>
c00435de:	73 73                	jae    c0043653 <__x86.get_pc_thunk.bx+0x998>
c00435e0:	20 3d 20 30 78 25    	and    %bh,0x25783020
c00435e6:	78 25                	js     c004360d <__x86.get_pc_thunk.bx+0x952>
c00435e8:	30 38                	xor    %bh,(%eax)
c00435ea:	78 2c                	js     c0043618 <__x86.get_pc_thunk.bx+0x95d>
c00435ec:	20 4c 65 6e          	and    %cl,0x6e(%ebp,%eiz,2)
c00435f0:	67 74 68             	addr16 je c004365b <__x86.get_pc_thunk.bx+0x9a0>
c00435f3:	20 3d 20 30 78 25    	and    %bh,0x25783020
c00435f9:	78 25                	js     c0043620 <__x86.get_pc_thunk.bx+0x965>
c00435fb:	30 38                	xor    %bh,(%eax)
c00435fd:	78 2c                	js     c004362b <__x86.get_pc_thunk.bx+0x970>
c00435ff:	20 54 79 70          	and    %dl,0x70(%ecx,%edi,2)
c0043603:	65 20 3d 20 30 78 25 	and    %bh,%gs:0x25783020
c004360a:	78 0a                	js     c0043616 <__x86.get_pc_thunk.bx+0x95b>
c004360c:	00 4b 65             	add    %cl,0x65(%ebx)
c004360f:	72 6e                	jb     c004367f <disp_pos+0x17>
c0043611:	65 6c                	gs insb (%dx),%es:(%edi)
c0043613:	20 53 74             	and    %dl,0x74(%ebx)
c0043616:	61                   	popa   
c0043617:	72 74                	jb     c004368d <video_buffer+0xd>
c0043619:	20 41 64             	and    %al,0x64(%ecx)
c004361c:	64 72 65             	fs jb  c0043684 <video_buffer+0x4>
c004361f:	73 73                	jae    c0043694 <video_buffer+0x14>
c0043621:	20 3d 20 30 78 25    	and    %bh,0x25783020
c0043627:	78 0a                	js     c0043633 <__x86.get_pc_thunk.bx+0x978>
c0043629:	00 4e 75             	add    %cl,0x75(%esi)
c004362c:	6d                   	insl   (%dx),%es:(%edi)
c004362d:	20 4f 66             	and    %cl,0x66(%edi)
c0043630:	20 46 72             	and    %al,0x72(%esi)
c0043633:	65 65 20 50 61       	gs and %dl,%gs:0x61(%eax)
c0043638:	67 65 73 20          	addr16 gs jae c004365c <__x86.get_pc_thunk.bx+0x9a1>
c004363c:	20 20                	and    %ah,(%eax)
c004363e:	20 3d 20 30 78 25    	and    %bh,0x25783020
c0043644:	78 0a                	js     c0043650 <__x86.get_pc_thunk.bx+0x995>
	...

Disassembly of section .data:

c0043660 <bios_mem_segs>:
c0043660:	00 00                	add    %al,(%eax)
	...

c0043664 <bios_mem_num>:
c0043664:	00 00                	add    %al,(%eax)
	...

c0043668 <disp_pos>:
	...

c0043680 <video_buffer>:
c0043680:	00 00                	add    %al,(%eax)
c0043682:	0a 00                	or     (%eax),%al
	...

c00436a0 <rgb_table>:
c00436a0:	00 00                	add    %al,(%eax)
c00436a2:	00 ff                	add    %bh,%bh
c00436a4:	00 00                	add    %al,(%eax)
c00436a6:	00 ff                	add    %bh,%bh
c00436a8:	00 ff                	add    %bh,%bh
c00436aa:	ff 00                	incl   (%eax)
c00436ac:	00 00                	add    %al,(%eax)
c00436ae:	ff                   	(bad)  
c00436af:	ff 00                	incl   (%eax)
c00436b1:	ff 00                	incl   (%eax)
c00436b3:	ff                   	(bad)  
c00436b4:	ff                   	(bad)  
c00436b5:	ff                   	(bad)  
c00436b6:	ff                   	(bad)  
c00436b7:	ff c6                	inc    %esi
c00436b9:	c6 c6 84             	mov    $0x84,%dh
c00436bc:	00 00                	add    %al,(%eax)
c00436be:	00 84 00 84 84 00 00 	add    %al,0x8484(%eax,%eax,1)
c00436c5:	00 84 84 00 84 00 84 	add    %al,-0x7bff7c00(%esp,%eax,4)
c00436cc:	84 84 84 84    	test   %al,0xb800084(%esp,%eax,4)

c00436d0 <video_memory>:
c00436d0:	00                   	.byte 0x0
c00436d1:	80 0b 00             	orb    $0x0,(%ebx)

Disassembly of section .got.plt:

c00436d4 <_GLOBAL_OFFSET_TABLE_>:
	...

Disassembly of section .bss:

c00436e0 <kernelStack>:
	...

c00476e0 <cursor_x>:
	...

c00476e1 <cursor_y>:
	...

c0047700 <buff.1155>:
	...

c0047b00 <buff.1163>:
	...

c0047f00 <mem_heap>:
	...

c0049f00 <mem_heap_top>:
c0049f00:	00 00                	add    %al,(%eax)
	...

c0049f04 <physical_page_count>:
	...

c0049f20 <gdt>:
	...

c0049f60 <keymap>:
	...

c004a028 <gdtPtr>:
	...

c004a030 <tick>:
	...

c004a040 <idtPtr>:
	...

c004a060 <idt_vectors>:
	...

c004a860 <interrupt_handler>:
	...

c004ac60 <mem_seg_descriptor>:
	...

Disassembly of section .comment:

00000000 <.comment>:
   0:	47                   	inc    %edi
   1:	43                   	inc    %ebx
   2:	43                   	inc    %ebx
   3:	3a 20                	cmp    (%eax),%ah
   5:	28 55 62             	sub    %dl,0x62(%ebp)
   8:	75 6e                	jne    78 <SECLETOR_KERNEL_VIDEO+0x60>
   a:	74 75                	je     81 <SECLETOR_KERNEL_VIDEO+0x69>
   c:	20 37                	and    %dh,(%edi)
   e:	2e 33 2e             	xor    %cs:(%esi),%ebp
  11:	30 2d 31 36 75 62    	xor    %ch,0x62753631
  17:	75 6e                	jne    87 <SECLETOR_KERNEL_VIDEO+0x6f>
  19:	74 75                	je     90 <SECLETOR_KERNEL_VIDEO+0x78>
  1b:	33 29                	xor    (%ecx),%ebp
  1d:	20 37                	and    %dh,(%edi)
  1f:	2e 33 2e             	xor    %cs:(%esi),%ebp
  22:	30 00                	xor    %al,(%eax)
