
kernel.bin:     file format elf32-i386


Disassembly of section .text:

00030400 <_kstart>:
   30400:	bc 60 7c 03 00       	mov    $0x37c60,%esp
   30405:	89 15 e0 3b 03 00    	mov    %edx,0x33be0
   3040b:	89 1d e4 3b 03 00    	mov    %ebx,0x33be4
   30411:	fa                   	cli    
   30412:	0f 01 05 a8 a5 03 00 	sgdtl  0x3a5a8
   30419:	0f 01 15 a8 a5 03 00 	lgdtl  0x3a5a8
   30420:	e8 91 00 00 00       	call   304b6 <cstart>
   30425:	0f 01 1d c0 a5 03 00 	lidtl  0x3a5c0
   3042c:	fb                   	sti    
   3042d:	eb fe                	jmp    3042d <_kstart+0x2d>
   3042f:	ea 36 04 03 00 08 00 	ljmp   $0x8,$0x30436

00030436 <csinit>:
   30436:	eb fe                	jmp    30436 <csinit>
   30438:	66 90                	xchg   %ax,%ax
   3043a:	66 90                	xchg   %ax,%ax
   3043c:	66 90                	xchg   %ax,%ax
   3043e:	66 90                	xchg   %ax,%ax

00030440 <MemCopy>:
   30440:	55                   	push   %ebp
   30441:	89 e5                	mov    %esp,%ebp
   30443:	56                   	push   %esi
   30444:	57                   	push   %edi
   30445:	51                   	push   %ecx
   30446:	8b 7d 08             	mov    0x8(%ebp),%edi
   30449:	8b 75 0c             	mov    0xc(%ebp),%esi
   3044c:	8b 4d 10             	mov    0x10(%ebp),%ecx

0003044f <MemCopy.cpyGoOn>:
   3044f:	83 f9 00             	cmp    $0x0,%ecx
   30452:	74 0b                	je     3045f <MemCopy.cpyDone>
   30454:	3e 8a 06             	mov    %ds:(%esi),%al
   30457:	46                   	inc    %esi
   30458:	26 88 07             	mov    %al,%es:(%edi)
   3045b:	47                   	inc    %edi
   3045c:	49                   	dec    %ecx
   3045d:	eb f0                	jmp    3044f <MemCopy.cpyGoOn>

0003045f <MemCopy.cpyDone>:
   3045f:	8b 45 08             	mov    0x8(%ebp),%eax
   30462:	59                   	pop    %ecx
   30463:	5f                   	pop    %edi
   30464:	5e                   	pop    %esi
   30465:	89 ec                	mov    %ebp,%esp
   30467:	5d                   	pop    %ebp
   30468:	c3                   	ret    

00030469 <DisplayString>:
   30469:	55                   	push   %ebp
   3046a:	89 e5                	mov    %esp,%ebp
   3046c:	8b 75 08             	mov    0x8(%ebp),%esi
   3046f:	8b 3d e8 3b 03 00    	mov    0x33be8,%edi
   30475:	b4 0f                	mov    $0xf,%ah

00030477 <disp_str.1>:
   30477:	ac                   	lods   %ds:(%esi),%al
   30478:	84 c0                	test   %al,%al
   3047a:	74 23                	je     3049f <disp_str.2>
   3047c:	3c 0a                	cmp    $0xa,%al
   3047e:	75 16                	jne    30496 <disp_str.3>
   30480:	50                   	push   %eax
   30481:	89 f8                	mov    %edi,%eax
   30483:	b3 a0                	mov    $0xa0,%bl
   30485:	f6 f3                	div    %bl
   30487:	25 ff 00 00 00       	and    $0xff,%eax
   3048c:	40                   	inc    %eax
   3048d:	b3 a0                	mov    $0xa0,%bl
   3048f:	f6 e3                	mul    %bl
   30491:	89 c7                	mov    %eax,%edi
   30493:	58                   	pop    %eax
   30494:	eb e1                	jmp    30477 <disp_str.1>

00030496 <disp_str.3>:
   30496:	65 66 89 07          	mov    %ax,%gs:(%edi)
   3049a:	83 c7 02             	add    $0x2,%edi
   3049d:	eb d8                	jmp    30477 <disp_str.1>

0003049f <disp_str.2>:
   3049f:	89 3d e8 3b 03 00    	mov    %edi,0x33be8
   304a5:	5d                   	pop    %ebp
   304a6:	c3                   	ret    

000304a7 <WriteMem>:
   304a7:	51                   	push   %ecx
   304a8:	50                   	push   %eax
   304a9:	8b 4c 24 04          	mov    0x4(%esp),%ecx
   304ad:	8a 44 24 08          	mov    0x8(%esp),%al
   304b1:	88 01                	mov    %al,(%ecx)
   304b3:	58                   	pop    %eax
   304b4:	51                   	push   %ecx
   304b5:	c3                   	ret    

000304b6 <cstart>:
   304b6:	55                   	push   %ebp
   304b7:	89 e5                	mov    %esp,%ebp
   304b9:	53                   	push   %ebx
   304ba:	83 ec 14             	sub    $0x14,%esp
   304bd:	e8 85 2d 00 00       	call   33247 <__x86.get_pc_thunk.bx>
   304c2:	81 c3 92 37 00 00    	add    $0x3792,%ebx
   304c8:	c7 45 f4 00 00 00 00 	movl   $0x0,-0xc(%ebp)
   304cf:	eb 5b                	jmp    3052c <cstart+0x76>
   304d1:	c7 c0 a0 a4 03 00    	mov    $0x3a4a0,%eax
   304d7:	8b 55 f4             	mov    -0xc(%ebp),%edx
   304da:	66 c7 04 d0 ff ff    	movw   $0xffff,(%eax,%edx,8)
   304e0:	c7 c0 a0 a4 03 00    	mov    $0x3a4a0,%eax
   304e6:	8b 55 f4             	mov    -0xc(%ebp),%edx
   304e9:	66 c7 44 d0 02 ff ff 	movw   $0xffff,0x2(%eax,%edx,8)
   304f0:	c7 c0 a0 a4 03 00    	mov    $0x3a4a0,%eax
   304f6:	8b 55 f4             	mov    -0xc(%ebp),%edx
   304f9:	c6 44 d0 04 ff       	movb   $0xff,0x4(%eax,%edx,8)
   304fe:	c7 c0 a0 a4 03 00    	mov    $0x3a4a0,%eax
   30504:	8b 55 f4             	mov    -0xc(%ebp),%edx
   30507:	c6 44 d0 05 ff       	movb   $0xff,0x5(%eax,%edx,8)
   3050c:	c7 c0 a0 a4 03 00    	mov    $0x3a4a0,%eax
   30512:	8b 55 f4             	mov    -0xc(%ebp),%edx
   30515:	c6 44 d0 06 ff       	movb   $0xff,0x6(%eax,%edx,8)
   3051a:	c7 c0 a0 a4 03 00    	mov    $0x3a4a0,%eax
   30520:	8b 55 f4             	mov    -0xc(%ebp),%edx
   30523:	c6 44 d0 07 ff       	movb   $0xff,0x7(%eax,%edx,8)
   30528:	83 45 f4 01          	addl   $0x1,-0xc(%ebp)
   3052c:	83 7d f4 07          	cmpl   $0x7,-0xc(%ebp)
   30530:	76 9f                	jbe    304d1 <cstart+0x1b>
   30532:	c7 c0 a0 a4 03 00    	mov    $0x3a4a0,%eax
   30538:	66 c7 00 00 00       	movw   $0x0,(%eax)
   3053d:	c7 c0 a0 a4 03 00    	mov    $0x3a4a0,%eax
   30543:	66 c7 40 02 00 00    	movw   $0x0,0x2(%eax)
   30549:	c7 c0 a0 a4 03 00    	mov    $0x3a4a0,%eax
   3054f:	c6 40 04 00          	movb   $0x0,0x4(%eax)
   30553:	c7 c0 a0 a4 03 00    	mov    $0x3a4a0,%eax
   30559:	66 c7 40 05 00 00    	movw   $0x0,0x5(%eax)
   3055f:	c7 c0 a0 a4 03 00    	mov    $0x3a4a0,%eax
   30565:	c6 40 07 00          	movb   $0x0,0x7(%eax)
   30569:	c7 c0 a0 a4 03 00    	mov    $0x3a4a0,%eax
   3056f:	66 c7 40 08 ff ff    	movw   $0xffff,0x8(%eax)
   30575:	c7 c0 a0 a4 03 00    	mov    $0x3a4a0,%eax
   3057b:	66 c7 40 0a 00 00    	movw   $0x0,0xa(%eax)
   30581:	c7 c0 a0 a4 03 00    	mov    $0x3a4a0,%eax
   30587:	c6 40 0c 00          	movb   $0x0,0xc(%eax)
   3058b:	c7 c0 a0 a4 03 00    	mov    $0x3a4a0,%eax
   30591:	66 c7 40 0d 9a cf    	movw   $0xcf9a,0xd(%eax)
   30597:	c7 c0 a0 a4 03 00    	mov    $0x3a4a0,%eax
   3059d:	c6 40 0f 00          	movb   $0x0,0xf(%eax)
   305a1:	c7 c0 a0 a4 03 00    	mov    $0x3a4a0,%eax
   305a7:	66 c7 40 10 ff ff    	movw   $0xffff,0x10(%eax)
   305ad:	c7 c0 a0 a4 03 00    	mov    $0x3a4a0,%eax
   305b3:	66 c7 40 12 00 00    	movw   $0x0,0x12(%eax)
   305b9:	c7 c0 a0 a4 03 00    	mov    $0x3a4a0,%eax
   305bf:	c6 40 14 00          	movb   $0x0,0x14(%eax)
   305c3:	c7 c0 a0 a4 03 00    	mov    $0x3a4a0,%eax
   305c9:	66 c7 40 15 92 cf    	movw   $0xcf92,0x15(%eax)
   305cf:	c7 c0 a0 a4 03 00    	mov    $0x3a4a0,%eax
   305d5:	c6 40 17 00          	movb   $0x0,0x17(%eax)
   305d9:	c7 c0 a0 a4 03 00    	mov    $0x3a4a0,%eax
   305df:	66 c7 40 18 ff ff    	movw   $0xffff,0x18(%eax)
   305e5:	c7 c0 a0 a4 03 00    	mov    $0x3a4a0,%eax
   305eb:	66 c7 40 1a 00 80    	movw   $0x8000,0x1a(%eax)
   305f1:	c7 c0 a0 a4 03 00    	mov    $0x3a4a0,%eax
   305f7:	c6 40 1c 0b          	movb   $0xb,0x1c(%eax)
   305fb:	c7 c0 a0 a4 03 00    	mov    $0x3a4a0,%eax
   30601:	66 c7 40 1d f2 00    	movw   $0xf2,0x1d(%eax)
   30607:	c7 c0 a0 a4 03 00    	mov    $0x3a4a0,%eax
   3060d:	c6 40 1f 00          	movb   $0x0,0x1f(%eax)
   30611:	c7 c0 a8 a5 03 00    	mov    $0x3a5a8,%eax
   30617:	8d 40 02             	lea    0x2(%eax),%eax
   3061a:	c7 c2 a0 a4 03 00    	mov    $0x3a4a0,%edx
   30620:	89 10                	mov    %edx,(%eax)
   30622:	e8 d8 18 00 00       	call   31eff <console_clear>
   30627:	e8 8b 24 00 00       	call   32ab7 <mem_seg_desc_copy>
   3062c:	e8 d5 25 00 00       	call   32c06 <mem_seg_desc_display>
   30631:	e8 ca 26 00 00       	call   32d00 <init_phy_memoey>
   30636:	e8 ab 03 00 00       	call   309e6 <init_idt_table>
   3063b:	83 ec 0c             	sub    $0xc,%esp
   3063e:	68 30 75 00 00       	push   $0x7530
   30643:	e8 12 02 00 00       	call   3085a <init_timer>
   30648:	83 c4 10             	add    $0x10,%esp
   3064b:	e8 f5 14 00 00       	call   31b45 <init_keyboard>
   30650:	90                   	nop
   30651:	8b 5d fc             	mov    -0x4(%ebp),%ebx
   30654:	c9                   	leave  
   30655:	c3                   	ret    

00030656 <init_palette>:
   30656:	55                   	push   %ebp
   30657:	89 e5                	mov    %esp,%ebp
   30659:	83 ec 08             	sub    $0x8,%esp
   3065c:	e8 ea 2b 00 00       	call   3324b <__x86.get_pc_thunk.ax>
   30661:	05 f3 35 00 00       	add    $0x35f3,%eax
   30666:	83 ec 04             	sub    $0x4,%esp
   30669:	8d 80 cc ff ff ff    	lea    -0x34(%eax),%eax
   3066f:	50                   	push   %eax
   30670:	6a 0f                	push   $0xf
   30672:	6a 00                	push   $0x0
   30674:	e8 06 00 00 00       	call   3067f <set_palette>
   30679:	83 c4 10             	add    $0x10,%esp
   3067c:	90                   	nop
   3067d:	c9                   	leave  
   3067e:	c3                   	ret    

0003067f <set_palette>:
   3067f:	55                   	push   %ebp
   30680:	89 e5                	mov    %esp,%ebp
   30682:	53                   	push   %ebx
   30683:	83 ec 14             	sub    $0x14,%esp
   30686:	e8 bc 2b 00 00       	call   33247 <__x86.get_pc_thunk.bx>
   3068b:	81 c3 c9 35 00 00    	add    $0x35c9,%ebx
   30691:	e8 e1 27 00 00       	call   32e77 <disable_int>
   30696:	8b 45 08             	mov    0x8(%ebp),%eax
   30699:	0f b6 c0             	movzbl %al,%eax
   3069c:	83 ec 08             	sub    $0x8,%esp
   3069f:	50                   	push   %eax
   306a0:	68 c8 03 00 00       	push   $0x3c8
   306a5:	e8 ef 26 00 00       	call   32d99 <outb>
   306aa:	83 c4 10             	add    $0x10,%esp
   306ad:	c6 45 f7 00          	movb   $0x0,-0x9(%ebp)
   306b1:	eb 6b                	jmp    3071e <set_palette+0x9f>
   306b3:	8b 45 10             	mov    0x10(%ebp),%eax
   306b6:	0f b6 00             	movzbl (%eax),%eax
   306b9:	c0 e8 02             	shr    $0x2,%al
   306bc:	0f b6 c0             	movzbl %al,%eax
   306bf:	83 ec 08             	sub    $0x8,%esp
   306c2:	50                   	push   %eax
   306c3:	68 c9 03 00 00       	push   $0x3c9
   306c8:	e8 cc 26 00 00       	call   32d99 <outb>
   306cd:	83 c4 10             	add    $0x10,%esp
   306d0:	8b 45 10             	mov    0x10(%ebp),%eax
   306d3:	83 c0 01             	add    $0x1,%eax
   306d6:	0f b6 00             	movzbl (%eax),%eax
   306d9:	c0 e8 02             	shr    $0x2,%al
   306dc:	0f b6 c0             	movzbl %al,%eax
   306df:	83 ec 08             	sub    $0x8,%esp
   306e2:	50                   	push   %eax
   306e3:	68 c9 03 00 00       	push   $0x3c9
   306e8:	e8 ac 26 00 00       	call   32d99 <outb>
   306ed:	83 c4 10             	add    $0x10,%esp
   306f0:	8b 45 10             	mov    0x10(%ebp),%eax
   306f3:	83 c0 02             	add    $0x2,%eax
   306f6:	0f b6 00             	movzbl (%eax),%eax
   306f9:	c0 e8 02             	shr    $0x2,%al
   306fc:	0f b6 c0             	movzbl %al,%eax
   306ff:	83 ec 08             	sub    $0x8,%esp
   30702:	50                   	push   %eax
   30703:	68 c9 03 00 00       	push   $0x3c9
   30708:	e8 8c 26 00 00       	call   32d99 <outb>
   3070d:	83 c4 10             	add    $0x10,%esp
   30710:	83 45 10 03          	addl   $0x3,0x10(%ebp)
   30714:	0f b6 45 f7          	movzbl -0x9(%ebp),%eax
   30718:	83 c0 01             	add    $0x1,%eax
   3071b:	88 45 f7             	mov    %al,-0x9(%ebp)
   3071e:	0f b6 45 f7          	movzbl -0x9(%ebp),%eax
   30722:	39 45 0c             	cmp    %eax,0xc(%ebp)
   30725:	73 8c                	jae    306b3 <set_palette+0x34>
   30727:	90                   	nop
   30728:	8b 5d fc             	mov    -0x4(%ebp),%ebx
   3072b:	c9                   	leave  
   3072c:	c3                   	ret    

0003072d <draw_main>:
   3072d:	55                   	push   %ebp
   3072e:	89 e5                	mov    %esp,%ebp
   30730:	56                   	push   %esi
   30731:	53                   	push   %ebx
   30732:	83 ec 10             	sub    $0x10,%esp
   30735:	e8 0d 2b 00 00       	call   33247 <__x86.get_pc_thunk.bx>
   3073a:	81 c3 1a 35 00 00    	add    $0x351a,%ebx
   30740:	e8 11 ff ff ff       	call   30656 <init_palette>
   30745:	c7 45 f4 80 02 00 00 	movl   $0x280,-0xc(%ebp)
   3074c:	c7 45 f0 5e 01 00 00 	movl   $0x15e,-0x10(%ebp)
   30753:	8b 45 f0             	mov    -0x10(%ebp),%eax
   30756:	8d 48 ec             	lea    -0x14(%eax),%ecx
   30759:	8b 45 f4             	mov    -0xc(%ebp),%eax
   3075c:	8d 50 ff             	lea    -0x1(%eax),%edx
   3075f:	8b 83 ac ff ff ff    	mov    -0x54(%ebx),%eax
   30765:	83 ec 04             	sub    $0x4,%esp
   30768:	51                   	push   %ecx
   30769:	52                   	push   %edx
   3076a:	6a 00                	push   $0x0
   3076c:	6a 00                	push   $0x0
   3076e:	6a 0f                	push   $0xf
   30770:	ff 75 f4             	pushl  -0xc(%ebp)
   30773:	50                   	push   %eax
   30774:	e8 67 00 00 00       	call   307e0 <draw>
   30779:	83 c4 20             	add    $0x20,%esp
   3077c:	8b 45 f0             	mov    -0x10(%ebp),%eax
   3077f:	8d 70 ec             	lea    -0x14(%eax),%esi
   30782:	8b 45 f4             	mov    -0xc(%ebp),%eax
   30785:	8d 48 ff             	lea    -0x1(%eax),%ecx
   30788:	8b 45 f0             	mov    -0x10(%ebp),%eax
   3078b:	8d 50 ec             	lea    -0x14(%eax),%edx
   3078e:	8b 83 ac ff ff ff    	mov    -0x54(%ebx),%eax
   30794:	83 ec 04             	sub    $0x4,%esp
   30797:	56                   	push   %esi
   30798:	51                   	push   %ecx
   30799:	52                   	push   %edx
   3079a:	6a 00                	push   $0x0
   3079c:	6a 08                	push   $0x8
   3079e:	ff 75 f4             	pushl  -0xc(%ebp)
   307a1:	50                   	push   %eax
   307a2:	e8 39 00 00 00       	call   307e0 <draw>
   307a7:	83 c4 20             	add    $0x20,%esp
   307aa:	8b 45 f0             	mov    -0x10(%ebp),%eax
   307ad:	8d 70 ec             	lea    -0x14(%eax),%esi
   307b0:	8b 45 f4             	mov    -0xc(%ebp),%eax
   307b3:	8d 48 ff             	lea    -0x1(%eax),%ecx
   307b6:	8b 45 f0             	mov    -0x10(%ebp),%eax
   307b9:	8d 50 ec             	lea    -0x14(%eax),%edx
   307bc:	8b 83 ac ff ff ff    	mov    -0x54(%ebx),%eax
   307c2:	83 ec 04             	sub    $0x4,%esp
   307c5:	56                   	push   %esi
   307c6:	51                   	push   %ecx
   307c7:	52                   	push   %edx
   307c8:	6a 00                	push   $0x0
   307ca:	6a 02                	push   $0x2
   307cc:	ff 75 f4             	pushl  -0xc(%ebp)
   307cf:	50                   	push   %eax
   307d0:	e8 0b 00 00 00       	call   307e0 <draw>
   307d5:	83 c4 20             	add    $0x20,%esp
   307d8:	90                   	nop
   307d9:	8d 65 f8             	lea    -0x8(%ebp),%esp
   307dc:	5b                   	pop    %ebx
   307dd:	5e                   	pop    %esi
   307de:	5d                   	pop    %ebp
   307df:	c3                   	ret    

000307e0 <draw>:
   307e0:	55                   	push   %ebp
   307e1:	89 e5                	mov    %esp,%ebp
   307e3:	83 ec 14             	sub    $0x14,%esp
   307e6:	e8 60 2a 00 00       	call   3324b <__x86.get_pc_thunk.ax>
   307eb:	05 69 34 00 00       	add    $0x3469,%eax
   307f0:	8b 45 10             	mov    0x10(%ebp),%eax
   307f3:	88 45 ec             	mov    %al,-0x14(%ebp)
   307f6:	8b 45 18             	mov    0x18(%ebp),%eax
   307f9:	88 45 fe             	mov    %al,-0x2(%ebp)
   307fc:	eb 40                	jmp    3083e <draw+0x5e>
   307fe:	8b 45 14             	mov    0x14(%ebp),%eax
   30801:	88 45 ff             	mov    %al,-0x1(%ebp)
   30804:	eb 25                	jmp    3082b <draw+0x4b>
   30806:	0f b6 45 fe          	movzbl -0x2(%ebp),%eax
   3080a:	0f af 45 0c          	imul   0xc(%ebp),%eax
   3080e:	89 c2                	mov    %eax,%edx
   30810:	0f b6 45 ff          	movzbl -0x1(%ebp),%eax
   30814:	01 c2                	add    %eax,%edx
   30816:	8b 45 08             	mov    0x8(%ebp),%eax
   30819:	01 c2                	add    %eax,%edx
   3081b:	0f b6 45 ec          	movzbl -0x14(%ebp),%eax
   3081f:	88 02                	mov    %al,(%edx)
   30821:	0f b6 45 ff          	movzbl -0x1(%ebp),%eax
   30825:	83 c0 01             	add    $0x1,%eax
   30828:	88 45 ff             	mov    %al,-0x1(%ebp)
   3082b:	0f b6 45 ff          	movzbl -0x1(%ebp),%eax
   3082f:	39 45 1c             	cmp    %eax,0x1c(%ebp)
   30832:	73 d2                	jae    30806 <draw+0x26>
   30834:	0f b6 45 fe          	movzbl -0x2(%ebp),%eax
   30838:	83 c0 01             	add    $0x1,%eax
   3083b:	88 45 fe             	mov    %al,-0x2(%ebp)
   3083e:	0f b6 45 fe          	movzbl -0x2(%ebp),%eax
   30842:	39 45 20             	cmp    %eax,0x20(%ebp)
   30845:	73 b7                	jae    307fe <draw+0x1e>
   30847:	90                   	nop
   30848:	c9                   	leave  
   30849:	c3                   	ret    

0003084a <timer_handler>:
   3084a:	55                   	push   %ebp
   3084b:	89 e5                	mov    %esp,%ebp
   3084d:	e8 f9 29 00 00       	call   3324b <__x86.get_pc_thunk.ax>
   30852:	05 02 34 00 00       	add    $0x3402,%eax
   30857:	90                   	nop
   30858:	5d                   	pop    %ebp
   30859:	c3                   	ret    

0003085a <init_timer>:
   3085a:	55                   	push   %ebp
   3085b:	89 e5                	mov    %esp,%ebp
   3085d:	53                   	push   %ebx
   3085e:	83 ec 14             	sub    $0x14,%esp
   30861:	e8 e1 29 00 00       	call   33247 <__x86.get_pc_thunk.bx>
   30866:	81 c3 ee 33 00 00    	add    $0x33ee,%ebx
   3086c:	c7 c0 b0 a5 03 00    	mov    $0x3a5b0,%eax
   30872:	c7 00 00 00 00 00    	movl   $0x0,(%eax)
   30878:	83 ec 08             	sub    $0x8,%esp
   3087b:	8d 83 f6 cb ff ff    	lea    -0x340a(%ebx),%eax
   30881:	50                   	push   %eax
   30882:	6a 20                	push   $0x20
   30884:	e8 32 11 00 00       	call   319bb <register_interrupt_handler>
   30889:	83 c4 10             	add    $0x10,%esp
   3088c:	b8 dc 34 12 00       	mov    $0x1234dc,%eax
   30891:	ba 00 00 00 00       	mov    $0x0,%edx
   30896:	f7 75 08             	divl   0x8(%ebp)
   30899:	89 45 f4             	mov    %eax,-0xc(%ebp)
   3089c:	83 ec 08             	sub    $0x8,%esp
   3089f:	6a 36                	push   $0x36
   308a1:	6a 43                	push   $0x43
   308a3:	e8 f1 24 00 00       	call   32d99 <outb>
   308a8:	83 c4 10             	add    $0x10,%esp
   308ab:	8b 45 f4             	mov    -0xc(%ebp),%eax
   308ae:	88 45 f3             	mov    %al,-0xd(%ebp)
   308b1:	8b 45 f4             	mov    -0xc(%ebp),%eax
   308b4:	c1 e8 08             	shr    $0x8,%eax
   308b7:	88 45 f2             	mov    %al,-0xe(%ebp)
   308ba:	0f b6 45 f3          	movzbl -0xd(%ebp),%eax
   308be:	83 ec 08             	sub    $0x8,%esp
   308c1:	50                   	push   %eax
   308c2:	6a 40                	push   $0x40
   308c4:	e8 d0 24 00 00       	call   32d99 <outb>
   308c9:	83 c4 10             	add    $0x10,%esp
   308cc:	0f b6 45 f2          	movzbl -0xe(%ebp),%eax
   308d0:	83 ec 08             	sub    $0x8,%esp
   308d3:	50                   	push   %eax
   308d4:	6a 40                	push   $0x40
   308d6:	e8 be 24 00 00       	call   32d99 <outb>
   308db:	83 c4 10             	add    $0x10,%esp
   308de:	90                   	nop
   308df:	8b 5d fc             	mov    -0x4(%ebp),%ebx
   308e2:	c9                   	leave  
   308e3:	c3                   	ret    

000308e4 <isr_handler_dispatcher>:
   308e4:	55                   	push   %ebp
   308e5:	89 e5                	mov    %esp,%ebp
   308e7:	53                   	push   %ebx
   308e8:	83 ec 04             	sub    $0x4,%esp
   308eb:	e8 57 29 00 00       	call   33247 <__x86.get_pc_thunk.bx>
   308f0:	81 c3 64 33 00 00    	add    $0x3364,%ebx
   308f6:	83 ec 04             	sub    $0x4,%esp
   308f9:	8d 83 58 fd ff ff    	lea    -0x2a8(%ebx),%eax
   308ff:	50                   	push   %eax
   30900:	6a 04                	push   $0x4
   30902:	6a 00                	push   $0x0
   30904:	e8 6e 1a 00 00       	call   32377 <printk_color>
   30909:	83 c4 10             	add    $0x10,%esp
   3090c:	8b 45 08             	mov    0x8(%ebp),%eax
   3090f:	8b 50 24             	mov    0x24(%eax),%edx
   30912:	c7 c0 e0 ad 03 00    	mov    $0x3ade0,%eax
   30918:	8b 04 90             	mov    (%eax,%edx,4),%eax
   3091b:	85 c0                	test   %eax,%eax
   3091d:	74 36                	je     30955 <isr_handler_dispatcher+0x71>
   3091f:	8b 45 08             	mov    0x8(%ebp),%eax
   30922:	8b 40 24             	mov    0x24(%eax),%eax
   30925:	50                   	push   %eax
   30926:	8d 83 72 fd ff ff    	lea    -0x28e(%ebx),%eax
   3092c:	50                   	push   %eax
   3092d:	6a 04                	push   $0x4
   3092f:	6a 00                	push   $0x0
   30931:	e8 41 1a 00 00       	call   32377 <printk_color>
   30936:	83 c4 10             	add    $0x10,%esp
   30939:	8b 45 08             	mov    0x8(%ebp),%eax
   3093c:	8b 50 24             	mov    0x24(%eax),%edx
   3093f:	c7 c0 e0 ad 03 00    	mov    $0x3ade0,%eax
   30945:	8b 04 90             	mov    (%eax,%edx,4),%eax
   30948:	83 ec 0c             	sub    $0xc,%esp
   3094b:	ff 75 08             	pushl  0x8(%ebp)
   3094e:	ff d0                	call   *%eax
   30950:	83 c4 10             	add    $0x10,%esp
   30953:	eb 1a                	jmp    3096f <isr_handler_dispatcher+0x8b>
   30955:	8b 45 08             	mov    0x8(%ebp),%eax
   30958:	8b 40 24             	mov    0x24(%eax),%eax
   3095b:	50                   	push   %eax
   3095c:	8d 83 8c fd ff ff    	lea    -0x274(%ebx),%eax
   30962:	50                   	push   %eax
   30963:	6a 04                	push   $0x4
   30965:	6a 00                	push   $0x0
   30967:	e8 0b 1a 00 00       	call   32377 <printk_color>
   3096c:	83 c4 10             	add    $0x10,%esp
   3096f:	90                   	nop
   30970:	8b 5d fc             	mov    -0x4(%ebp),%ebx
   30973:	c9                   	leave  
   30974:	c3                   	ret    

00030975 <irq_handler_dispathcer>:
   30975:	55                   	push   %ebp
   30976:	89 e5                	mov    %esp,%ebp
   30978:	53                   	push   %ebx
   30979:	83 ec 04             	sub    $0x4,%esp
   3097c:	e8 c6 28 00 00       	call   33247 <__x86.get_pc_thunk.bx>
   30981:	81 c3 d3 32 00 00    	add    $0x32d3,%ebx
   30987:	8b 45 08             	mov    0x8(%ebp),%eax
   3098a:	8b 40 24             	mov    0x24(%eax),%eax
   3098d:	83 f8 27             	cmp    $0x27,%eax
   30990:	76 12                	jbe    309a4 <irq_handler_dispathcer+0x2f>
   30992:	83 ec 08             	sub    $0x8,%esp
   30995:	6a 20                	push   $0x20
   30997:	68 a0 00 00 00       	push   $0xa0
   3099c:	e8 f8 23 00 00       	call   32d99 <outb>
   309a1:	83 c4 10             	add    $0x10,%esp
   309a4:	83 ec 08             	sub    $0x8,%esp
   309a7:	6a 20                	push   $0x20
   309a9:	6a 20                	push   $0x20
   309ab:	e8 e9 23 00 00       	call   32d99 <outb>
   309b0:	83 c4 10             	add    $0x10,%esp
   309b3:	8b 45 08             	mov    0x8(%ebp),%eax
   309b6:	8b 50 24             	mov    0x24(%eax),%edx
   309b9:	c7 c0 e0 ad 03 00    	mov    $0x3ade0,%eax
   309bf:	8b 04 90             	mov    (%eax,%edx,4),%eax
   309c2:	85 c0                	test   %eax,%eax
   309c4:	74 1a                	je     309e0 <irq_handler_dispathcer+0x6b>
   309c6:	8b 45 08             	mov    0x8(%ebp),%eax
   309c9:	8b 50 24             	mov    0x24(%eax),%edx
   309cc:	c7 c0 e0 ad 03 00    	mov    $0x3ade0,%eax
   309d2:	8b 04 90             	mov    (%eax,%edx,4),%eax
   309d5:	83 ec 0c             	sub    $0xc,%esp
   309d8:	ff 75 08             	pushl  0x8(%ebp)
   309db:	ff d0                	call   *%eax
   309dd:	83 c4 10             	add    $0x10,%esp
   309e0:	90                   	nop
   309e1:	8b 5d fc             	mov    -0x4(%ebp),%ebx
   309e4:	c9                   	leave  
   309e5:	c3                   	ret    

000309e6 <init_idt_table>:
   309e6:	55                   	push   %ebp
   309e7:	89 e5                	mov    %esp,%ebp
   309e9:	53                   	push   %ebx
   309ea:	83 ec 04             	sub    $0x4,%esp
   309ed:	e8 55 28 00 00       	call   33247 <__x86.get_pc_thunk.bx>
   309f2:	81 c3 62 32 00 00    	add    $0x3262,%ebx
   309f8:	83 ec 08             	sub    $0x8,%esp
   309fb:	68 00 04 00 00       	push   $0x400
   30a00:	c7 c0 e0 ad 03 00    	mov    $0x3ade0,%eax
   30a06:	50                   	push   %eax
   30a07:	e8 fa 24 00 00       	call   32f06 <bzero>
   30a0c:	83 c4 10             	add    $0x10,%esp
   30a0f:	c7 c0 e0 a5 03 00    	mov    $0x3a5e0,%eax
   30a15:	89 c2                	mov    %eax,%edx
   30a17:	c7 c0 c0 a5 03 00    	mov    $0x3a5c0,%eax
   30a1d:	89 50 02             	mov    %edx,0x2(%eax)
   30a20:	c7 c0 c0 a5 03 00    	mov    $0x3a5c0,%eax
   30a26:	66 c7 00 ff ff       	movw   $0xffff,(%eax)
   30a2b:	c7 c0 87 30 03 00    	mov    $0x33087,%eax
   30a31:	89 c2                	mov    %eax,%edx
   30a33:	c7 c0 e0 a5 03 00    	mov    $0x3a5e0,%eax
   30a39:	66 89 10             	mov    %dx,(%eax)
   30a3c:	c7 c0 87 30 03 00    	mov    $0x33087,%eax
   30a42:	c1 e8 10             	shr    $0x10,%eax
   30a45:	89 c2                	mov    %eax,%edx
   30a47:	c7 c0 e0 a5 03 00    	mov    $0x3a5e0,%eax
   30a4d:	66 89 50 06          	mov    %dx,0x6(%eax)
   30a51:	c7 c0 e0 a5 03 00    	mov    $0x3a5e0,%eax
   30a57:	66 c7 40 02 08 00    	movw   $0x8,0x2(%eax)
   30a5d:	c7 c0 e0 a5 03 00    	mov    $0x3a5e0,%eax
   30a63:	c6 40 05 8e          	movb   $0x8e,0x5(%eax)
   30a67:	c7 c0 e0 a5 03 00    	mov    $0x3a5e0,%eax
   30a6d:	c6 40 04 00          	movb   $0x0,0x4(%eax)
   30a71:	c7 c0 8e 30 03 00    	mov    $0x3308e,%eax
   30a77:	89 c2                	mov    %eax,%edx
   30a79:	c7 c0 e0 a5 03 00    	mov    $0x3a5e0,%eax
   30a7f:	66 89 50 08          	mov    %dx,0x8(%eax)
   30a83:	c7 c0 8e 30 03 00    	mov    $0x3308e,%eax
   30a89:	c1 e8 10             	shr    $0x10,%eax
   30a8c:	89 c2                	mov    %eax,%edx
   30a8e:	c7 c0 e0 a5 03 00    	mov    $0x3a5e0,%eax
   30a94:	66 89 50 0e          	mov    %dx,0xe(%eax)
   30a98:	c7 c0 e0 a5 03 00    	mov    $0x3a5e0,%eax
   30a9e:	66 c7 40 0a 08 00    	movw   $0x8,0xa(%eax)
   30aa4:	c7 c0 e0 a5 03 00    	mov    $0x3a5e0,%eax
   30aaa:	c6 40 0d 8e          	movb   $0x8e,0xd(%eax)
   30aae:	c7 c0 e0 a5 03 00    	mov    $0x3a5e0,%eax
   30ab4:	c6 40 0c 00          	movb   $0x0,0xc(%eax)
   30ab8:	c7 c0 95 30 03 00    	mov    $0x33095,%eax
   30abe:	89 c2                	mov    %eax,%edx
   30ac0:	c7 c0 e0 a5 03 00    	mov    $0x3a5e0,%eax
   30ac6:	66 89 50 10          	mov    %dx,0x10(%eax)
   30aca:	c7 c0 95 30 03 00    	mov    $0x33095,%eax
   30ad0:	c1 e8 10             	shr    $0x10,%eax
   30ad3:	89 c2                	mov    %eax,%edx
   30ad5:	c7 c0 e0 a5 03 00    	mov    $0x3a5e0,%eax
   30adb:	66 89 50 16          	mov    %dx,0x16(%eax)
   30adf:	c7 c0 e0 a5 03 00    	mov    $0x3a5e0,%eax
   30ae5:	66 c7 40 12 08 00    	movw   $0x8,0x12(%eax)
   30aeb:	c7 c0 e0 a5 03 00    	mov    $0x3a5e0,%eax
   30af1:	c6 40 15 8e          	movb   $0x8e,0x15(%eax)
   30af5:	c7 c0 e0 a5 03 00    	mov    $0x3a5e0,%eax
   30afb:	c6 40 14 00          	movb   $0x0,0x14(%eax)
   30aff:	c7 c0 9c 30 03 00    	mov    $0x3309c,%eax
   30b05:	89 c2                	mov    %eax,%edx
   30b07:	c7 c0 e0 a5 03 00    	mov    $0x3a5e0,%eax
   30b0d:	66 89 50 18          	mov    %dx,0x18(%eax)
   30b11:	c7 c0 9c 30 03 00    	mov    $0x3309c,%eax
   30b17:	c1 e8 10             	shr    $0x10,%eax
   30b1a:	89 c2                	mov    %eax,%edx
   30b1c:	c7 c0 e0 a5 03 00    	mov    $0x3a5e0,%eax
   30b22:	66 89 50 1e          	mov    %dx,0x1e(%eax)
   30b26:	c7 c0 e0 a5 03 00    	mov    $0x3a5e0,%eax
   30b2c:	66 c7 40 1a 08 00    	movw   $0x8,0x1a(%eax)
   30b32:	c7 c0 e0 a5 03 00    	mov    $0x3a5e0,%eax
   30b38:	c6 40 1d 8e          	movb   $0x8e,0x1d(%eax)
   30b3c:	c7 c0 e0 a5 03 00    	mov    $0x3a5e0,%eax
   30b42:	c6 40 1c 00          	movb   $0x0,0x1c(%eax)
   30b46:	c7 c0 a3 30 03 00    	mov    $0x330a3,%eax
   30b4c:	89 c2                	mov    %eax,%edx
   30b4e:	c7 c0 e0 a5 03 00    	mov    $0x3a5e0,%eax
   30b54:	66 89 50 20          	mov    %dx,0x20(%eax)
   30b58:	c7 c0 a3 30 03 00    	mov    $0x330a3,%eax
   30b5e:	c1 e8 10             	shr    $0x10,%eax
   30b61:	89 c2                	mov    %eax,%edx
   30b63:	c7 c0 e0 a5 03 00    	mov    $0x3a5e0,%eax
   30b69:	66 89 50 26          	mov    %dx,0x26(%eax)
   30b6d:	c7 c0 e0 a5 03 00    	mov    $0x3a5e0,%eax
   30b73:	66 c7 40 22 08 00    	movw   $0x8,0x22(%eax)
   30b79:	c7 c0 e0 a5 03 00    	mov    $0x3a5e0,%eax
   30b7f:	c6 40 25 8e          	movb   $0x8e,0x25(%eax)
   30b83:	c7 c0 e0 a5 03 00    	mov    $0x3a5e0,%eax
   30b89:	c6 40 24 00          	movb   $0x0,0x24(%eax)
   30b8d:	c7 c0 aa 30 03 00    	mov    $0x330aa,%eax
   30b93:	89 c2                	mov    %eax,%edx
   30b95:	c7 c0 e0 a5 03 00    	mov    $0x3a5e0,%eax
   30b9b:	66 89 50 28          	mov    %dx,0x28(%eax)
   30b9f:	c7 c0 aa 30 03 00    	mov    $0x330aa,%eax
   30ba5:	c1 e8 10             	shr    $0x10,%eax
   30ba8:	89 c2                	mov    %eax,%edx
   30baa:	c7 c0 e0 a5 03 00    	mov    $0x3a5e0,%eax
   30bb0:	66 89 50 2e          	mov    %dx,0x2e(%eax)
   30bb4:	c7 c0 e0 a5 03 00    	mov    $0x3a5e0,%eax
   30bba:	66 c7 40 2a 08 00    	movw   $0x8,0x2a(%eax)
   30bc0:	c7 c0 e0 a5 03 00    	mov    $0x3a5e0,%eax
   30bc6:	c6 40 2d 8e          	movb   $0x8e,0x2d(%eax)
   30bca:	c7 c0 e0 a5 03 00    	mov    $0x3a5e0,%eax
   30bd0:	c6 40 2c 00          	movb   $0x0,0x2c(%eax)
   30bd4:	c7 c0 b1 30 03 00    	mov    $0x330b1,%eax
   30bda:	89 c2                	mov    %eax,%edx
   30bdc:	c7 c0 e0 a5 03 00    	mov    $0x3a5e0,%eax
   30be2:	66 89 50 30          	mov    %dx,0x30(%eax)
   30be6:	c7 c0 b1 30 03 00    	mov    $0x330b1,%eax
   30bec:	c1 e8 10             	shr    $0x10,%eax
   30bef:	89 c2                	mov    %eax,%edx
   30bf1:	c7 c0 e0 a5 03 00    	mov    $0x3a5e0,%eax
   30bf7:	66 89 50 36          	mov    %dx,0x36(%eax)
   30bfb:	c7 c0 e0 a5 03 00    	mov    $0x3a5e0,%eax
   30c01:	66 c7 40 32 08 00    	movw   $0x8,0x32(%eax)
   30c07:	c7 c0 e0 a5 03 00    	mov    $0x3a5e0,%eax
   30c0d:	c6 40 35 8e          	movb   $0x8e,0x35(%eax)
   30c11:	c7 c0 e0 a5 03 00    	mov    $0x3a5e0,%eax
   30c17:	c6 40 34 00          	movb   $0x0,0x34(%eax)
   30c1b:	c7 c0 b8 30 03 00    	mov    $0x330b8,%eax
   30c21:	89 c2                	mov    %eax,%edx
   30c23:	c7 c0 e0 a5 03 00    	mov    $0x3a5e0,%eax
   30c29:	66 89 50 38          	mov    %dx,0x38(%eax)
   30c2d:	c7 c0 b8 30 03 00    	mov    $0x330b8,%eax
   30c33:	c1 e8 10             	shr    $0x10,%eax
   30c36:	89 c2                	mov    %eax,%edx
   30c38:	c7 c0 e0 a5 03 00    	mov    $0x3a5e0,%eax
   30c3e:	66 89 50 3e          	mov    %dx,0x3e(%eax)
   30c42:	c7 c0 e0 a5 03 00    	mov    $0x3a5e0,%eax
   30c48:	66 c7 40 3a 08 00    	movw   $0x8,0x3a(%eax)
   30c4e:	c7 c0 e0 a5 03 00    	mov    $0x3a5e0,%eax
   30c54:	c6 40 3d 8e          	movb   $0x8e,0x3d(%eax)
   30c58:	c7 c0 e0 a5 03 00    	mov    $0x3a5e0,%eax
   30c5e:	c6 40 3c 00          	movb   $0x0,0x3c(%eax)
   30c62:	c7 c0 bf 30 03 00    	mov    $0x330bf,%eax
   30c68:	89 c2                	mov    %eax,%edx
   30c6a:	c7 c0 e0 a5 03 00    	mov    $0x3a5e0,%eax
   30c70:	66 89 50 40          	mov    %dx,0x40(%eax)
   30c74:	c7 c0 bf 30 03 00    	mov    $0x330bf,%eax
   30c7a:	c1 e8 10             	shr    $0x10,%eax
   30c7d:	89 c2                	mov    %eax,%edx
   30c7f:	c7 c0 e0 a5 03 00    	mov    $0x3a5e0,%eax
   30c85:	66 89 50 46          	mov    %dx,0x46(%eax)
   30c89:	c7 c0 e0 a5 03 00    	mov    $0x3a5e0,%eax
   30c8f:	66 c7 40 42 08 00    	movw   $0x8,0x42(%eax)
   30c95:	c7 c0 e0 a5 03 00    	mov    $0x3a5e0,%eax
   30c9b:	c6 40 45 8e          	movb   $0x8e,0x45(%eax)
   30c9f:	c7 c0 e0 a5 03 00    	mov    $0x3a5e0,%eax
   30ca5:	c6 40 44 00          	movb   $0x0,0x44(%eax)
   30ca9:	c7 c0 c4 30 03 00    	mov    $0x330c4,%eax
   30caf:	89 c2                	mov    %eax,%edx
   30cb1:	c7 c0 e0 a5 03 00    	mov    $0x3a5e0,%eax
   30cb7:	66 89 50 48          	mov    %dx,0x48(%eax)
   30cbb:	c7 c0 c4 30 03 00    	mov    $0x330c4,%eax
   30cc1:	c1 e8 10             	shr    $0x10,%eax
   30cc4:	89 c2                	mov    %eax,%edx
   30cc6:	c7 c0 e0 a5 03 00    	mov    $0x3a5e0,%eax
   30ccc:	66 89 50 4e          	mov    %dx,0x4e(%eax)
   30cd0:	c7 c0 e0 a5 03 00    	mov    $0x3a5e0,%eax
   30cd6:	66 c7 40 4a 08 00    	movw   $0x8,0x4a(%eax)
   30cdc:	c7 c0 e0 a5 03 00    	mov    $0x3a5e0,%eax
   30ce2:	c6 40 4d 8e          	movb   $0x8e,0x4d(%eax)
   30ce6:	c7 c0 e0 a5 03 00    	mov    $0x3a5e0,%eax
   30cec:	c6 40 4c 00          	movb   $0x0,0x4c(%eax)
   30cf0:	c7 c0 cb 30 03 00    	mov    $0x330cb,%eax
   30cf6:	89 c2                	mov    %eax,%edx
   30cf8:	c7 c0 e0 a5 03 00    	mov    $0x3a5e0,%eax
   30cfe:	66 89 50 50          	mov    %dx,0x50(%eax)
   30d02:	c7 c0 cb 30 03 00    	mov    $0x330cb,%eax
   30d08:	c1 e8 10             	shr    $0x10,%eax
   30d0b:	89 c2                	mov    %eax,%edx
   30d0d:	c7 c0 e0 a5 03 00    	mov    $0x3a5e0,%eax
   30d13:	66 89 50 56          	mov    %dx,0x56(%eax)
   30d17:	c7 c0 e0 a5 03 00    	mov    $0x3a5e0,%eax
   30d1d:	66 c7 40 52 08 00    	movw   $0x8,0x52(%eax)
   30d23:	c7 c0 e0 a5 03 00    	mov    $0x3a5e0,%eax
   30d29:	c6 40 55 8e          	movb   $0x8e,0x55(%eax)
   30d2d:	c7 c0 e0 a5 03 00    	mov    $0x3a5e0,%eax
   30d33:	c6 40 54 00          	movb   $0x0,0x54(%eax)
   30d37:	c7 c0 d0 30 03 00    	mov    $0x330d0,%eax
   30d3d:	89 c2                	mov    %eax,%edx
   30d3f:	c7 c0 e0 a5 03 00    	mov    $0x3a5e0,%eax
   30d45:	66 89 50 58          	mov    %dx,0x58(%eax)
   30d49:	c7 c0 d0 30 03 00    	mov    $0x330d0,%eax
   30d4f:	c1 e8 10             	shr    $0x10,%eax
   30d52:	89 c2                	mov    %eax,%edx
   30d54:	c7 c0 e0 a5 03 00    	mov    $0x3a5e0,%eax
   30d5a:	66 89 50 5e          	mov    %dx,0x5e(%eax)
   30d5e:	c7 c0 e0 a5 03 00    	mov    $0x3a5e0,%eax
   30d64:	66 c7 40 5a 08 00    	movw   $0x8,0x5a(%eax)
   30d6a:	c7 c0 e0 a5 03 00    	mov    $0x3a5e0,%eax
   30d70:	c6 40 5d 8e          	movb   $0x8e,0x5d(%eax)
   30d74:	c7 c0 e0 a5 03 00    	mov    $0x3a5e0,%eax
   30d7a:	c6 40 5c 00          	movb   $0x0,0x5c(%eax)
   30d7e:	c7 c0 d5 30 03 00    	mov    $0x330d5,%eax
   30d84:	89 c2                	mov    %eax,%edx
   30d86:	c7 c0 e0 a5 03 00    	mov    $0x3a5e0,%eax
   30d8c:	66 89 50 60          	mov    %dx,0x60(%eax)
   30d90:	c7 c0 d5 30 03 00    	mov    $0x330d5,%eax
   30d96:	c1 e8 10             	shr    $0x10,%eax
   30d99:	89 c2                	mov    %eax,%edx
   30d9b:	c7 c0 e0 a5 03 00    	mov    $0x3a5e0,%eax
   30da1:	66 89 50 66          	mov    %dx,0x66(%eax)
   30da5:	c7 c0 e0 a5 03 00    	mov    $0x3a5e0,%eax
   30dab:	66 c7 40 62 08 00    	movw   $0x8,0x62(%eax)
   30db1:	c7 c0 e0 a5 03 00    	mov    $0x3a5e0,%eax
   30db7:	c6 40 65 8e          	movb   $0x8e,0x65(%eax)
   30dbb:	c7 c0 e0 a5 03 00    	mov    $0x3a5e0,%eax
   30dc1:	c6 40 64 00          	movb   $0x0,0x64(%eax)
   30dc5:	c7 c0 da 30 03 00    	mov    $0x330da,%eax
   30dcb:	89 c2                	mov    %eax,%edx
   30dcd:	c7 c0 e0 a5 03 00    	mov    $0x3a5e0,%eax
   30dd3:	66 89 50 68          	mov    %dx,0x68(%eax)
   30dd7:	c7 c0 da 30 03 00    	mov    $0x330da,%eax
   30ddd:	c1 e8 10             	shr    $0x10,%eax
   30de0:	89 c2                	mov    %eax,%edx
   30de2:	c7 c0 e0 a5 03 00    	mov    $0x3a5e0,%eax
   30de8:	66 89 50 6e          	mov    %dx,0x6e(%eax)
   30dec:	c7 c0 e0 a5 03 00    	mov    $0x3a5e0,%eax
   30df2:	66 c7 40 6a 08 00    	movw   $0x8,0x6a(%eax)
   30df8:	c7 c0 e0 a5 03 00    	mov    $0x3a5e0,%eax
   30dfe:	c6 40 6d 8e          	movb   $0x8e,0x6d(%eax)
   30e02:	c7 c0 e0 a5 03 00    	mov    $0x3a5e0,%eax
   30e08:	c6 40 6c 00          	movb   $0x0,0x6c(%eax)
   30e0c:	c7 c0 e2 30 03 00    	mov    $0x330e2,%eax
   30e12:	89 c2                	mov    %eax,%edx
   30e14:	c7 c0 e0 a5 03 00    	mov    $0x3a5e0,%eax
   30e1a:	66 89 50 70          	mov    %dx,0x70(%eax)
   30e1e:	c7 c0 e2 30 03 00    	mov    $0x330e2,%eax
   30e24:	c1 e8 10             	shr    $0x10,%eax
   30e27:	89 c2                	mov    %eax,%edx
   30e29:	c7 c0 e0 a5 03 00    	mov    $0x3a5e0,%eax
   30e2f:	66 89 50 76          	mov    %dx,0x76(%eax)
   30e33:	c7 c0 e0 a5 03 00    	mov    $0x3a5e0,%eax
   30e39:	66 c7 40 72 08 00    	movw   $0x8,0x72(%eax)
   30e3f:	c7 c0 e0 a5 03 00    	mov    $0x3a5e0,%eax
   30e45:	c6 40 75 8e          	movb   $0x8e,0x75(%eax)
   30e49:	c7 c0 e0 a5 03 00    	mov    $0x3a5e0,%eax
   30e4f:	c6 40 74 00          	movb   $0x0,0x74(%eax)
   30e53:	c7 c0 ea 30 03 00    	mov    $0x330ea,%eax
   30e59:	89 c2                	mov    %eax,%edx
   30e5b:	c7 c0 e0 a5 03 00    	mov    $0x3a5e0,%eax
   30e61:	66 89 50 78          	mov    %dx,0x78(%eax)
   30e65:	c7 c0 ea 30 03 00    	mov    $0x330ea,%eax
   30e6b:	c1 e8 10             	shr    $0x10,%eax
   30e6e:	89 c2                	mov    %eax,%edx
   30e70:	c7 c0 e0 a5 03 00    	mov    $0x3a5e0,%eax
   30e76:	66 89 50 7e          	mov    %dx,0x7e(%eax)
   30e7a:	c7 c0 e0 a5 03 00    	mov    $0x3a5e0,%eax
   30e80:	66 c7 40 7a 08 00    	movw   $0x8,0x7a(%eax)
   30e86:	c7 c0 e0 a5 03 00    	mov    $0x3a5e0,%eax
   30e8c:	c6 40 7d 8e          	movb   $0x8e,0x7d(%eax)
   30e90:	c7 c0 e0 a5 03 00    	mov    $0x3a5e0,%eax
   30e96:	c6 40 7c 00          	movb   $0x0,0x7c(%eax)
   30e9a:	c7 c0 f4 30 03 00    	mov    $0x330f4,%eax
   30ea0:	89 c2                	mov    %eax,%edx
   30ea2:	c7 c0 e0 a5 03 00    	mov    $0x3a5e0,%eax
   30ea8:	66 89 90 80 00 00 00 	mov    %dx,0x80(%eax)
   30eaf:	c7 c0 f4 30 03 00    	mov    $0x330f4,%eax
   30eb5:	c1 e8 10             	shr    $0x10,%eax
   30eb8:	89 c2                	mov    %eax,%edx
   30eba:	c7 c0 e0 a5 03 00    	mov    $0x3a5e0,%eax
   30ec0:	66 89 90 86 00 00 00 	mov    %dx,0x86(%eax)
   30ec7:	c7 c0 e0 a5 03 00    	mov    $0x3a5e0,%eax
   30ecd:	66 c7 80 82 00 00 00 	movw   $0x8,0x82(%eax)
   30ed4:	08 00 
   30ed6:	c7 c0 e0 a5 03 00    	mov    $0x3a5e0,%eax
   30edc:	c6 80 85 00 00 00 8e 	movb   $0x8e,0x85(%eax)
   30ee3:	c7 c0 e0 a5 03 00    	mov    $0x3a5e0,%eax
   30ee9:	c6 80 84 00 00 00 00 	movb   $0x0,0x84(%eax)
   30ef0:	c7 c0 fe 30 03 00    	mov    $0x330fe,%eax
   30ef6:	89 c2                	mov    %eax,%edx
   30ef8:	c7 c0 e0 a5 03 00    	mov    $0x3a5e0,%eax
   30efe:	66 89 90 88 00 00 00 	mov    %dx,0x88(%eax)
   30f05:	c7 c0 fe 30 03 00    	mov    $0x330fe,%eax
   30f0b:	c1 e8 10             	shr    $0x10,%eax
   30f0e:	89 c2                	mov    %eax,%edx
   30f10:	c7 c0 e0 a5 03 00    	mov    $0x3a5e0,%eax
   30f16:	66 89 90 8e 00 00 00 	mov    %dx,0x8e(%eax)
   30f1d:	c7 c0 e0 a5 03 00    	mov    $0x3a5e0,%eax
   30f23:	66 c7 80 8a 00 00 00 	movw   $0x8,0x8a(%eax)
   30f2a:	08 00 
   30f2c:	c7 c0 e0 a5 03 00    	mov    $0x3a5e0,%eax
   30f32:	c6 80 8d 00 00 00 8e 	movb   $0x8e,0x8d(%eax)
   30f39:	c7 c0 e0 a5 03 00    	mov    $0x3a5e0,%eax
   30f3f:	c6 80 8c 00 00 00 00 	movb   $0x0,0x8c(%eax)
   30f46:	c7 c0 06 31 03 00    	mov    $0x33106,%eax
   30f4c:	89 c2                	mov    %eax,%edx
   30f4e:	c7 c0 e0 a5 03 00    	mov    $0x3a5e0,%eax
   30f54:	66 89 90 90 00 00 00 	mov    %dx,0x90(%eax)
   30f5b:	c7 c0 06 31 03 00    	mov    $0x33106,%eax
   30f61:	c1 e8 10             	shr    $0x10,%eax
   30f64:	89 c2                	mov    %eax,%edx
   30f66:	c7 c0 e0 a5 03 00    	mov    $0x3a5e0,%eax
   30f6c:	66 89 90 96 00 00 00 	mov    %dx,0x96(%eax)
   30f73:	c7 c0 e0 a5 03 00    	mov    $0x3a5e0,%eax
   30f79:	66 c7 80 92 00 00 00 	movw   $0x8,0x92(%eax)
   30f80:	08 00 
   30f82:	c7 c0 e0 a5 03 00    	mov    $0x3a5e0,%eax
   30f88:	c6 80 95 00 00 00 8e 	movb   $0x8e,0x95(%eax)
   30f8f:	c7 c0 e0 a5 03 00    	mov    $0x3a5e0,%eax
   30f95:	c6 80 94 00 00 00 00 	movb   $0x0,0x94(%eax)
   30f9c:	c7 c0 10 31 03 00    	mov    $0x33110,%eax
   30fa2:	89 c2                	mov    %eax,%edx
   30fa4:	c7 c0 e0 a5 03 00    	mov    $0x3a5e0,%eax
   30faa:	66 89 90 98 00 00 00 	mov    %dx,0x98(%eax)
   30fb1:	c7 c0 10 31 03 00    	mov    $0x33110,%eax
   30fb7:	c1 e8 10             	shr    $0x10,%eax
   30fba:	89 c2                	mov    %eax,%edx
   30fbc:	c7 c0 e0 a5 03 00    	mov    $0x3a5e0,%eax
   30fc2:	66 89 90 9e 00 00 00 	mov    %dx,0x9e(%eax)
   30fc9:	c7 c0 e0 a5 03 00    	mov    $0x3a5e0,%eax
   30fcf:	66 c7 80 9a 00 00 00 	movw   $0x8,0x9a(%eax)
   30fd6:	08 00 
   30fd8:	c7 c0 e0 a5 03 00    	mov    $0x3a5e0,%eax
   30fde:	c6 80 9d 00 00 00 8e 	movb   $0x8e,0x9d(%eax)
   30fe5:	c7 c0 e0 a5 03 00    	mov    $0x3a5e0,%eax
   30feb:	c6 80 9c 00 00 00 00 	movb   $0x0,0x9c(%eax)
   30ff2:	c7 c0 1a 31 03 00    	mov    $0x3311a,%eax
   30ff8:	89 c2                	mov    %eax,%edx
   30ffa:	c7 c0 e0 a5 03 00    	mov    $0x3a5e0,%eax
   31000:	66 89 90 a0 00 00 00 	mov    %dx,0xa0(%eax)
   31007:	c7 c0 1a 31 03 00    	mov    $0x3311a,%eax
   3100d:	c1 e8 10             	shr    $0x10,%eax
   31010:	89 c2                	mov    %eax,%edx
   31012:	c7 c0 e0 a5 03 00    	mov    $0x3a5e0,%eax
   31018:	66 89 90 a6 00 00 00 	mov    %dx,0xa6(%eax)
   3101f:	c7 c0 e0 a5 03 00    	mov    $0x3a5e0,%eax
   31025:	66 c7 80 a2 00 00 00 	movw   $0x8,0xa2(%eax)
   3102c:	08 00 
   3102e:	c7 c0 e0 a5 03 00    	mov    $0x3a5e0,%eax
   31034:	c6 80 a5 00 00 00 8e 	movb   $0x8e,0xa5(%eax)
   3103b:	c7 c0 e0 a5 03 00    	mov    $0x3a5e0,%eax
   31041:	c6 80 a4 00 00 00 00 	movb   $0x0,0xa4(%eax)
   31048:	c7 c0 24 31 03 00    	mov    $0x33124,%eax
   3104e:	89 c2                	mov    %eax,%edx
   31050:	c7 c0 e0 a5 03 00    	mov    $0x3a5e0,%eax
   31056:	66 89 90 a8 00 00 00 	mov    %dx,0xa8(%eax)
   3105d:	c7 c0 24 31 03 00    	mov    $0x33124,%eax
   31063:	c1 e8 10             	shr    $0x10,%eax
   31066:	89 c2                	mov    %eax,%edx
   31068:	c7 c0 e0 a5 03 00    	mov    $0x3a5e0,%eax
   3106e:	66 89 90 ae 00 00 00 	mov    %dx,0xae(%eax)
   31075:	c7 c0 e0 a5 03 00    	mov    $0x3a5e0,%eax
   3107b:	66 c7 80 aa 00 00 00 	movw   $0x8,0xaa(%eax)
   31082:	08 00 
   31084:	c7 c0 e0 a5 03 00    	mov    $0x3a5e0,%eax
   3108a:	c6 80 ad 00 00 00 8e 	movb   $0x8e,0xad(%eax)
   31091:	c7 c0 e0 a5 03 00    	mov    $0x3a5e0,%eax
   31097:	c6 80 ac 00 00 00 00 	movb   $0x0,0xac(%eax)
   3109e:	c7 c0 2e 31 03 00    	mov    $0x3312e,%eax
   310a4:	89 c2                	mov    %eax,%edx
   310a6:	c7 c0 e0 a5 03 00    	mov    $0x3a5e0,%eax
   310ac:	66 89 90 b0 00 00 00 	mov    %dx,0xb0(%eax)
   310b3:	c7 c0 2e 31 03 00    	mov    $0x3312e,%eax
   310b9:	c1 e8 10             	shr    $0x10,%eax
   310bc:	89 c2                	mov    %eax,%edx
   310be:	c7 c0 e0 a5 03 00    	mov    $0x3a5e0,%eax
   310c4:	66 89 90 b6 00 00 00 	mov    %dx,0xb6(%eax)
   310cb:	c7 c0 e0 a5 03 00    	mov    $0x3a5e0,%eax
   310d1:	66 c7 80 b2 00 00 00 	movw   $0x8,0xb2(%eax)
   310d8:	08 00 
   310da:	c7 c0 e0 a5 03 00    	mov    $0x3a5e0,%eax
   310e0:	c6 80 b5 00 00 00 8e 	movb   $0x8e,0xb5(%eax)
   310e7:	c7 c0 e0 a5 03 00    	mov    $0x3a5e0,%eax
   310ed:	c6 80 b4 00 00 00 00 	movb   $0x0,0xb4(%eax)
   310f4:	c7 c0 38 31 03 00    	mov    $0x33138,%eax
   310fa:	89 c2                	mov    %eax,%edx
   310fc:	c7 c0 e0 a5 03 00    	mov    $0x3a5e0,%eax
   31102:	66 89 90 b8 00 00 00 	mov    %dx,0xb8(%eax)
   31109:	c7 c0 38 31 03 00    	mov    $0x33138,%eax
   3110f:	c1 e8 10             	shr    $0x10,%eax
   31112:	89 c2                	mov    %eax,%edx
   31114:	c7 c0 e0 a5 03 00    	mov    $0x3a5e0,%eax
   3111a:	66 89 90 be 00 00 00 	mov    %dx,0xbe(%eax)
   31121:	c7 c0 e0 a5 03 00    	mov    $0x3a5e0,%eax
   31127:	66 c7 80 ba 00 00 00 	movw   $0x8,0xba(%eax)
   3112e:	08 00 
   31130:	c7 c0 e0 a5 03 00    	mov    $0x3a5e0,%eax
   31136:	c6 80 bd 00 00 00 8e 	movb   $0x8e,0xbd(%eax)
   3113d:	c7 c0 e0 a5 03 00    	mov    $0x3a5e0,%eax
   31143:	c6 80 bc 00 00 00 00 	movb   $0x0,0xbc(%eax)
   3114a:	c7 c0 42 31 03 00    	mov    $0x33142,%eax
   31150:	89 c2                	mov    %eax,%edx
   31152:	c7 c0 e0 a5 03 00    	mov    $0x3a5e0,%eax
   31158:	66 89 90 c0 00 00 00 	mov    %dx,0xc0(%eax)
   3115f:	c7 c0 42 31 03 00    	mov    $0x33142,%eax
   31165:	c1 e8 10             	shr    $0x10,%eax
   31168:	89 c2                	mov    %eax,%edx
   3116a:	c7 c0 e0 a5 03 00    	mov    $0x3a5e0,%eax
   31170:	66 89 90 c6 00 00 00 	mov    %dx,0xc6(%eax)
   31177:	c7 c0 e0 a5 03 00    	mov    $0x3a5e0,%eax
   3117d:	66 c7 80 c2 00 00 00 	movw   $0x8,0xc2(%eax)
   31184:	08 00 
   31186:	c7 c0 e0 a5 03 00    	mov    $0x3a5e0,%eax
   3118c:	c6 80 c5 00 00 00 8e 	movb   $0x8e,0xc5(%eax)
   31193:	c7 c0 e0 a5 03 00    	mov    $0x3a5e0,%eax
   31199:	c6 80 c4 00 00 00 00 	movb   $0x0,0xc4(%eax)
   311a0:	c7 c0 4c 31 03 00    	mov    $0x3314c,%eax
   311a6:	89 c2                	mov    %eax,%edx
   311a8:	c7 c0 e0 a5 03 00    	mov    $0x3a5e0,%eax
   311ae:	66 89 90 c8 00 00 00 	mov    %dx,0xc8(%eax)
   311b5:	c7 c0 4c 31 03 00    	mov    $0x3314c,%eax
   311bb:	c1 e8 10             	shr    $0x10,%eax
   311be:	89 c2                	mov    %eax,%edx
   311c0:	c7 c0 e0 a5 03 00    	mov    $0x3a5e0,%eax
   311c6:	66 89 90 ce 00 00 00 	mov    %dx,0xce(%eax)
   311cd:	c7 c0 e0 a5 03 00    	mov    $0x3a5e0,%eax
   311d3:	66 c7 80 ca 00 00 00 	movw   $0x8,0xca(%eax)
   311da:	08 00 
   311dc:	c7 c0 e0 a5 03 00    	mov    $0x3a5e0,%eax
   311e2:	c6 80 cd 00 00 00 8e 	movb   $0x8e,0xcd(%eax)
   311e9:	c7 c0 e0 a5 03 00    	mov    $0x3a5e0,%eax
   311ef:	c6 80 cc 00 00 00 00 	movb   $0x0,0xcc(%eax)
   311f6:	c7 c0 56 31 03 00    	mov    $0x33156,%eax
   311fc:	89 c2                	mov    %eax,%edx
   311fe:	c7 c0 e0 a5 03 00    	mov    $0x3a5e0,%eax
   31204:	66 89 90 d0 00 00 00 	mov    %dx,0xd0(%eax)
   3120b:	c7 c0 56 31 03 00    	mov    $0x33156,%eax
   31211:	c1 e8 10             	shr    $0x10,%eax
   31214:	89 c2                	mov    %eax,%edx
   31216:	c7 c0 e0 a5 03 00    	mov    $0x3a5e0,%eax
   3121c:	66 89 90 d6 00 00 00 	mov    %dx,0xd6(%eax)
   31223:	c7 c0 e0 a5 03 00    	mov    $0x3a5e0,%eax
   31229:	66 c7 80 d2 00 00 00 	movw   $0x8,0xd2(%eax)
   31230:	08 00 
   31232:	c7 c0 e0 a5 03 00    	mov    $0x3a5e0,%eax
   31238:	c6 80 d5 00 00 00 8e 	movb   $0x8e,0xd5(%eax)
   3123f:	c7 c0 e0 a5 03 00    	mov    $0x3a5e0,%eax
   31245:	c6 80 d4 00 00 00 00 	movb   $0x0,0xd4(%eax)
   3124c:	c7 c0 60 31 03 00    	mov    $0x33160,%eax
   31252:	89 c2                	mov    %eax,%edx
   31254:	c7 c0 e0 a5 03 00    	mov    $0x3a5e0,%eax
   3125a:	66 89 90 d8 00 00 00 	mov    %dx,0xd8(%eax)
   31261:	c7 c0 60 31 03 00    	mov    $0x33160,%eax
   31267:	c1 e8 10             	shr    $0x10,%eax
   3126a:	89 c2                	mov    %eax,%edx
   3126c:	c7 c0 e0 a5 03 00    	mov    $0x3a5e0,%eax
   31272:	66 89 90 de 00 00 00 	mov    %dx,0xde(%eax)
   31279:	c7 c0 e0 a5 03 00    	mov    $0x3a5e0,%eax
   3127f:	66 c7 80 da 00 00 00 	movw   $0x8,0xda(%eax)
   31286:	08 00 
   31288:	c7 c0 e0 a5 03 00    	mov    $0x3a5e0,%eax
   3128e:	c6 80 dd 00 00 00 8e 	movb   $0x8e,0xdd(%eax)
   31295:	c7 c0 e0 a5 03 00    	mov    $0x3a5e0,%eax
   3129b:	c6 80 dc 00 00 00 00 	movb   $0x0,0xdc(%eax)
   312a2:	c7 c0 6a 31 03 00    	mov    $0x3316a,%eax
   312a8:	89 c2                	mov    %eax,%edx
   312aa:	c7 c0 e0 a5 03 00    	mov    $0x3a5e0,%eax
   312b0:	66 89 90 e0 00 00 00 	mov    %dx,0xe0(%eax)
   312b7:	c7 c0 6a 31 03 00    	mov    $0x3316a,%eax
   312bd:	c1 e8 10             	shr    $0x10,%eax
   312c0:	89 c2                	mov    %eax,%edx
   312c2:	c7 c0 e0 a5 03 00    	mov    $0x3a5e0,%eax
   312c8:	66 89 90 e6 00 00 00 	mov    %dx,0xe6(%eax)
   312cf:	c7 c0 e0 a5 03 00    	mov    $0x3a5e0,%eax
   312d5:	66 c7 80 e2 00 00 00 	movw   $0x8,0xe2(%eax)
   312dc:	08 00 
   312de:	c7 c0 e0 a5 03 00    	mov    $0x3a5e0,%eax
   312e4:	c6 80 e5 00 00 00 8e 	movb   $0x8e,0xe5(%eax)
   312eb:	c7 c0 e0 a5 03 00    	mov    $0x3a5e0,%eax
   312f1:	c6 80 e4 00 00 00 00 	movb   $0x0,0xe4(%eax)
   312f8:	c7 c0 74 31 03 00    	mov    $0x33174,%eax
   312fe:	89 c2                	mov    %eax,%edx
   31300:	c7 c0 e0 a5 03 00    	mov    $0x3a5e0,%eax
   31306:	66 89 90 e8 00 00 00 	mov    %dx,0xe8(%eax)
   3130d:	c7 c0 74 31 03 00    	mov    $0x33174,%eax
   31313:	c1 e8 10             	shr    $0x10,%eax
   31316:	89 c2                	mov    %eax,%edx
   31318:	c7 c0 e0 a5 03 00    	mov    $0x3a5e0,%eax
   3131e:	66 89 90 ee 00 00 00 	mov    %dx,0xee(%eax)
   31325:	c7 c0 e0 a5 03 00    	mov    $0x3a5e0,%eax
   3132b:	66 c7 80 ea 00 00 00 	movw   $0x8,0xea(%eax)
   31332:	08 00 
   31334:	c7 c0 e0 a5 03 00    	mov    $0x3a5e0,%eax
   3133a:	c6 80 ed 00 00 00 8e 	movb   $0x8e,0xed(%eax)
   31341:	c7 c0 e0 a5 03 00    	mov    $0x3a5e0,%eax
   31347:	c6 80 ec 00 00 00 00 	movb   $0x0,0xec(%eax)
   3134e:	c7 c0 7e 31 03 00    	mov    $0x3317e,%eax
   31354:	89 c2                	mov    %eax,%edx
   31356:	c7 c0 e0 a5 03 00    	mov    $0x3a5e0,%eax
   3135c:	66 89 90 f0 00 00 00 	mov    %dx,0xf0(%eax)
   31363:	c7 c0 7e 31 03 00    	mov    $0x3317e,%eax
   31369:	c1 e8 10             	shr    $0x10,%eax
   3136c:	89 c2                	mov    %eax,%edx
   3136e:	c7 c0 e0 a5 03 00    	mov    $0x3a5e0,%eax
   31374:	66 89 90 f6 00 00 00 	mov    %dx,0xf6(%eax)
   3137b:	c7 c0 e0 a5 03 00    	mov    $0x3a5e0,%eax
   31381:	66 c7 80 f2 00 00 00 	movw   $0x8,0xf2(%eax)
   31388:	08 00 
   3138a:	c7 c0 e0 a5 03 00    	mov    $0x3a5e0,%eax
   31390:	c6 80 f5 00 00 00 8e 	movb   $0x8e,0xf5(%eax)
   31397:	c7 c0 e0 a5 03 00    	mov    $0x3a5e0,%eax
   3139d:	c6 80 f4 00 00 00 00 	movb   $0x0,0xf4(%eax)
   313a4:	c7 c0 88 31 03 00    	mov    $0x33188,%eax
   313aa:	89 c2                	mov    %eax,%edx
   313ac:	c7 c0 e0 a5 03 00    	mov    $0x3a5e0,%eax
   313b2:	66 89 90 f8 00 00 00 	mov    %dx,0xf8(%eax)
   313b9:	c7 c0 88 31 03 00    	mov    $0x33188,%eax
   313bf:	c1 e8 10             	shr    $0x10,%eax
   313c2:	89 c2                	mov    %eax,%edx
   313c4:	c7 c0 e0 a5 03 00    	mov    $0x3a5e0,%eax
   313ca:	66 89 90 fe 00 00 00 	mov    %dx,0xfe(%eax)
   313d1:	c7 c0 e0 a5 03 00    	mov    $0x3a5e0,%eax
   313d7:	66 c7 80 fa 00 00 00 	movw   $0x8,0xfa(%eax)
   313de:	08 00 
   313e0:	c7 c0 e0 a5 03 00    	mov    $0x3a5e0,%eax
   313e6:	c6 80 fd 00 00 00 8e 	movb   $0x8e,0xfd(%eax)
   313ed:	c7 c0 e0 a5 03 00    	mov    $0x3a5e0,%eax
   313f3:	c6 80 fc 00 00 00 00 	movb   $0x0,0xfc(%eax)
   313fa:	c7 c0 92 31 03 00    	mov    $0x33192,%eax
   31400:	89 c2                	mov    %eax,%edx
   31402:	c7 c0 e0 a5 03 00    	mov    $0x3a5e0,%eax
   31408:	66 89 90 f8 07 00 00 	mov    %dx,0x7f8(%eax)
   3140f:	c7 c0 92 31 03 00    	mov    $0x33192,%eax
   31415:	c1 e8 10             	shr    $0x10,%eax
   31418:	89 c2                	mov    %eax,%edx
   3141a:	c7 c0 e0 a5 03 00    	mov    $0x3a5e0,%eax
   31420:	66 89 90 fe 07 00 00 	mov    %dx,0x7fe(%eax)
   31427:	c7 c0 e0 a5 03 00    	mov    $0x3a5e0,%eax
   3142d:	66 c7 80 fa 07 00 00 	movw   $0x8,0x7fa(%eax)
   31434:	08 00 
   31436:	c7 c0 e0 a5 03 00    	mov    $0x3a5e0,%eax
   3143c:	c6 80 fd 07 00 00 8e 	movb   $0x8e,0x7fd(%eax)
   31443:	c7 c0 e0 a5 03 00    	mov    $0x3a5e0,%eax
   31449:	c6 80 fc 07 00 00 00 	movb   $0x0,0x7fc(%eax)
   31450:	c7 c0 cb 31 03 00    	mov    $0x331cb,%eax
   31456:	89 c2                	mov    %eax,%edx
   31458:	c7 c0 e0 a5 03 00    	mov    $0x3a5e0,%eax
   3145e:	66 89 90 00 01 00 00 	mov    %dx,0x100(%eax)
   31465:	c7 c0 cb 31 03 00    	mov    $0x331cb,%eax
   3146b:	c1 e8 10             	shr    $0x10,%eax
   3146e:	89 c2                	mov    %eax,%edx
   31470:	c7 c0 e0 a5 03 00    	mov    $0x3a5e0,%eax
   31476:	66 89 90 06 01 00 00 	mov    %dx,0x106(%eax)
   3147d:	c7 c0 e0 a5 03 00    	mov    $0x3a5e0,%eax
   31483:	66 c7 80 02 01 00 00 	movw   $0x8,0x102(%eax)
   3148a:	08 00 
   3148c:	c7 c0 e0 a5 03 00    	mov    $0x3a5e0,%eax
   31492:	c6 80 05 01 00 00 8e 	movb   $0x8e,0x105(%eax)
   31499:	c7 c0 e0 a5 03 00    	mov    $0x3a5e0,%eax
   3149f:	c6 80 04 01 00 00 00 	movb   $0x0,0x104(%eax)
   314a6:	c7 c0 d2 31 03 00    	mov    $0x331d2,%eax
   314ac:	89 c2                	mov    %eax,%edx
   314ae:	c7 c0 e0 a5 03 00    	mov    $0x3a5e0,%eax
   314b4:	66 89 90 08 01 00 00 	mov    %dx,0x108(%eax)
   314bb:	c7 c0 d2 31 03 00    	mov    $0x331d2,%eax
   314c1:	c1 e8 10             	shr    $0x10,%eax
   314c4:	89 c2                	mov    %eax,%edx
   314c6:	c7 c0 e0 a5 03 00    	mov    $0x3a5e0,%eax
   314cc:	66 89 90 0e 01 00 00 	mov    %dx,0x10e(%eax)
   314d3:	c7 c0 e0 a5 03 00    	mov    $0x3a5e0,%eax
   314d9:	66 c7 80 0a 01 00 00 	movw   $0x8,0x10a(%eax)
   314e0:	08 00 
   314e2:	c7 c0 e0 a5 03 00    	mov    $0x3a5e0,%eax
   314e8:	c6 80 0d 01 00 00 8e 	movb   $0x8e,0x10d(%eax)
   314ef:	c7 c0 e0 a5 03 00    	mov    $0x3a5e0,%eax
   314f5:	c6 80 0c 01 00 00 00 	movb   $0x0,0x10c(%eax)
   314fc:	c7 c0 d9 31 03 00    	mov    $0x331d9,%eax
   31502:	89 c2                	mov    %eax,%edx
   31504:	c7 c0 e0 a5 03 00    	mov    $0x3a5e0,%eax
   3150a:	66 89 90 10 01 00 00 	mov    %dx,0x110(%eax)
   31511:	c7 c0 d9 31 03 00    	mov    $0x331d9,%eax
   31517:	c1 e8 10             	shr    $0x10,%eax
   3151a:	89 c2                	mov    %eax,%edx
   3151c:	c7 c0 e0 a5 03 00    	mov    $0x3a5e0,%eax
   31522:	66 89 90 16 01 00 00 	mov    %dx,0x116(%eax)
   31529:	c7 c0 e0 a5 03 00    	mov    $0x3a5e0,%eax
   3152f:	66 c7 80 12 01 00 00 	movw   $0x8,0x112(%eax)
   31536:	08 00 
   31538:	c7 c0 e0 a5 03 00    	mov    $0x3a5e0,%eax
   3153e:	c6 80 15 01 00 00 8e 	movb   $0x8e,0x115(%eax)
   31545:	c7 c0 e0 a5 03 00    	mov    $0x3a5e0,%eax
   3154b:	c6 80 14 01 00 00 00 	movb   $0x0,0x114(%eax)
   31552:	c7 c0 e0 31 03 00    	mov    $0x331e0,%eax
   31558:	89 c2                	mov    %eax,%edx
   3155a:	c7 c0 e0 a5 03 00    	mov    $0x3a5e0,%eax
   31560:	66 89 90 18 01 00 00 	mov    %dx,0x118(%eax)
   31567:	c7 c0 e0 31 03 00    	mov    $0x331e0,%eax
   3156d:	c1 e8 10             	shr    $0x10,%eax
   31570:	89 c2                	mov    %eax,%edx
   31572:	c7 c0 e0 a5 03 00    	mov    $0x3a5e0,%eax
   31578:	66 89 90 1e 01 00 00 	mov    %dx,0x11e(%eax)
   3157f:	c7 c0 e0 a5 03 00    	mov    $0x3a5e0,%eax
   31585:	66 c7 80 1a 01 00 00 	movw   $0x8,0x11a(%eax)
   3158c:	08 00 
   3158e:	c7 c0 e0 a5 03 00    	mov    $0x3a5e0,%eax
   31594:	c6 80 1d 01 00 00 8e 	movb   $0x8e,0x11d(%eax)
   3159b:	c7 c0 e0 a5 03 00    	mov    $0x3a5e0,%eax
   315a1:	c6 80 1c 01 00 00 00 	movb   $0x0,0x11c(%eax)
   315a8:	c7 c0 e7 31 03 00    	mov    $0x331e7,%eax
   315ae:	89 c2                	mov    %eax,%edx
   315b0:	c7 c0 e0 a5 03 00    	mov    $0x3a5e0,%eax
   315b6:	66 89 90 20 01 00 00 	mov    %dx,0x120(%eax)
   315bd:	c7 c0 e7 31 03 00    	mov    $0x331e7,%eax
   315c3:	c1 e8 10             	shr    $0x10,%eax
   315c6:	89 c2                	mov    %eax,%edx
   315c8:	c7 c0 e0 a5 03 00    	mov    $0x3a5e0,%eax
   315ce:	66 89 90 26 01 00 00 	mov    %dx,0x126(%eax)
   315d5:	c7 c0 e0 a5 03 00    	mov    $0x3a5e0,%eax
   315db:	66 c7 80 22 01 00 00 	movw   $0x8,0x122(%eax)
   315e2:	08 00 
   315e4:	c7 c0 e0 a5 03 00    	mov    $0x3a5e0,%eax
   315ea:	c6 80 25 01 00 00 8e 	movb   $0x8e,0x125(%eax)
   315f1:	c7 c0 e0 a5 03 00    	mov    $0x3a5e0,%eax
   315f7:	c6 80 24 01 00 00 00 	movb   $0x0,0x124(%eax)
   315fe:	c7 c0 ee 31 03 00    	mov    $0x331ee,%eax
   31604:	89 c2                	mov    %eax,%edx
   31606:	c7 c0 e0 a5 03 00    	mov    $0x3a5e0,%eax
   3160c:	66 89 90 28 01 00 00 	mov    %dx,0x128(%eax)
   31613:	c7 c0 ee 31 03 00    	mov    $0x331ee,%eax
   31619:	c1 e8 10             	shr    $0x10,%eax
   3161c:	89 c2                	mov    %eax,%edx
   3161e:	c7 c0 e0 a5 03 00    	mov    $0x3a5e0,%eax
   31624:	66 89 90 2e 01 00 00 	mov    %dx,0x12e(%eax)
   3162b:	c7 c0 e0 a5 03 00    	mov    $0x3a5e0,%eax
   31631:	66 c7 80 2a 01 00 00 	movw   $0x8,0x12a(%eax)
   31638:	08 00 
   3163a:	c7 c0 e0 a5 03 00    	mov    $0x3a5e0,%eax
   31640:	c6 80 2d 01 00 00 8e 	movb   $0x8e,0x12d(%eax)
   31647:	c7 c0 e0 a5 03 00    	mov    $0x3a5e0,%eax
   3164d:	c6 80 2c 01 00 00 00 	movb   $0x0,0x12c(%eax)
   31654:	c7 c0 f5 31 03 00    	mov    $0x331f5,%eax
   3165a:	89 c2                	mov    %eax,%edx
   3165c:	c7 c0 e0 a5 03 00    	mov    $0x3a5e0,%eax
   31662:	66 89 90 30 01 00 00 	mov    %dx,0x130(%eax)
   31669:	c7 c0 f5 31 03 00    	mov    $0x331f5,%eax
   3166f:	c1 e8 10             	shr    $0x10,%eax
   31672:	89 c2                	mov    %eax,%edx
   31674:	c7 c0 e0 a5 03 00    	mov    $0x3a5e0,%eax
   3167a:	66 89 90 36 01 00 00 	mov    %dx,0x136(%eax)
   31681:	c7 c0 e0 a5 03 00    	mov    $0x3a5e0,%eax
   31687:	66 c7 80 32 01 00 00 	movw   $0x8,0x132(%eax)
   3168e:	08 00 
   31690:	c7 c0 e0 a5 03 00    	mov    $0x3a5e0,%eax
   31696:	c6 80 35 01 00 00 8e 	movb   $0x8e,0x135(%eax)
   3169d:	c7 c0 e0 a5 03 00    	mov    $0x3a5e0,%eax
   316a3:	c6 80 34 01 00 00 00 	movb   $0x0,0x134(%eax)
   316aa:	c7 c0 fc 31 03 00    	mov    $0x331fc,%eax
   316b0:	89 c2                	mov    %eax,%edx
   316b2:	c7 c0 e0 a5 03 00    	mov    $0x3a5e0,%eax
   316b8:	66 89 90 38 01 00 00 	mov    %dx,0x138(%eax)
   316bf:	c7 c0 fc 31 03 00    	mov    $0x331fc,%eax
   316c5:	c1 e8 10             	shr    $0x10,%eax
   316c8:	89 c2                	mov    %eax,%edx
   316ca:	c7 c0 e0 a5 03 00    	mov    $0x3a5e0,%eax
   316d0:	66 89 90 3e 01 00 00 	mov    %dx,0x13e(%eax)
   316d7:	c7 c0 e0 a5 03 00    	mov    $0x3a5e0,%eax
   316dd:	66 c7 80 3a 01 00 00 	movw   $0x8,0x13a(%eax)
   316e4:	08 00 
   316e6:	c7 c0 e0 a5 03 00    	mov    $0x3a5e0,%eax
   316ec:	c6 80 3d 01 00 00 8e 	movb   $0x8e,0x13d(%eax)
   316f3:	c7 c0 e0 a5 03 00    	mov    $0x3a5e0,%eax
   316f9:	c6 80 3c 01 00 00 00 	movb   $0x0,0x13c(%eax)
   31700:	c7 c0 03 32 03 00    	mov    $0x33203,%eax
   31706:	89 c2                	mov    %eax,%edx
   31708:	c7 c0 e0 a5 03 00    	mov    $0x3a5e0,%eax
   3170e:	66 89 90 40 01 00 00 	mov    %dx,0x140(%eax)
   31715:	c7 c0 03 32 03 00    	mov    $0x33203,%eax
   3171b:	c1 e8 10             	shr    $0x10,%eax
   3171e:	89 c2                	mov    %eax,%edx
   31720:	c7 c0 e0 a5 03 00    	mov    $0x3a5e0,%eax
   31726:	66 89 90 46 01 00 00 	mov    %dx,0x146(%eax)
   3172d:	c7 c0 e0 a5 03 00    	mov    $0x3a5e0,%eax
   31733:	66 c7 80 42 01 00 00 	movw   $0x8,0x142(%eax)
   3173a:	08 00 
   3173c:	c7 c0 e0 a5 03 00    	mov    $0x3a5e0,%eax
   31742:	c6 80 45 01 00 00 8e 	movb   $0x8e,0x145(%eax)
   31749:	c7 c0 e0 a5 03 00    	mov    $0x3a5e0,%eax
   3174f:	c6 80 44 01 00 00 00 	movb   $0x0,0x144(%eax)
   31756:	c7 c0 0a 32 03 00    	mov    $0x3320a,%eax
   3175c:	89 c2                	mov    %eax,%edx
   3175e:	c7 c0 e0 a5 03 00    	mov    $0x3a5e0,%eax
   31764:	66 89 90 48 01 00 00 	mov    %dx,0x148(%eax)
   3176b:	c7 c0 0a 32 03 00    	mov    $0x3320a,%eax
   31771:	c1 e8 10             	shr    $0x10,%eax
   31774:	89 c2                	mov    %eax,%edx
   31776:	c7 c0 e0 a5 03 00    	mov    $0x3a5e0,%eax
   3177c:	66 89 90 4e 01 00 00 	mov    %dx,0x14e(%eax)
   31783:	c7 c0 e0 a5 03 00    	mov    $0x3a5e0,%eax
   31789:	66 c7 80 4a 01 00 00 	movw   $0x8,0x14a(%eax)
   31790:	08 00 
   31792:	c7 c0 e0 a5 03 00    	mov    $0x3a5e0,%eax
   31798:	c6 80 4d 01 00 00 8e 	movb   $0x8e,0x14d(%eax)
   3179f:	c7 c0 e0 a5 03 00    	mov    $0x3a5e0,%eax
   317a5:	c6 80 4c 01 00 00 00 	movb   $0x0,0x14c(%eax)
   317ac:	c7 c0 11 32 03 00    	mov    $0x33211,%eax
   317b2:	89 c2                	mov    %eax,%edx
   317b4:	c7 c0 e0 a5 03 00    	mov    $0x3a5e0,%eax
   317ba:	66 89 90 50 01 00 00 	mov    %dx,0x150(%eax)
   317c1:	c7 c0 11 32 03 00    	mov    $0x33211,%eax
   317c7:	c1 e8 10             	shr    $0x10,%eax
   317ca:	89 c2                	mov    %eax,%edx
   317cc:	c7 c0 e0 a5 03 00    	mov    $0x3a5e0,%eax
   317d2:	66 89 90 56 01 00 00 	mov    %dx,0x156(%eax)
   317d9:	c7 c0 e0 a5 03 00    	mov    $0x3a5e0,%eax
   317df:	66 c7 80 52 01 00 00 	movw   $0x8,0x152(%eax)
   317e6:	08 00 
   317e8:	c7 c0 e0 a5 03 00    	mov    $0x3a5e0,%eax
   317ee:	c6 80 55 01 00 00 8e 	movb   $0x8e,0x155(%eax)
   317f5:	c7 c0 e0 a5 03 00    	mov    $0x3a5e0,%eax
   317fb:	c6 80 54 01 00 00 00 	movb   $0x0,0x154(%eax)
   31802:	c7 c0 18 32 03 00    	mov    $0x33218,%eax
   31808:	89 c2                	mov    %eax,%edx
   3180a:	c7 c0 e0 a5 03 00    	mov    $0x3a5e0,%eax
   31810:	66 89 90 58 01 00 00 	mov    %dx,0x158(%eax)
   31817:	c7 c0 18 32 03 00    	mov    $0x33218,%eax
   3181d:	c1 e8 10             	shr    $0x10,%eax
   31820:	89 c2                	mov    %eax,%edx
   31822:	c7 c0 e0 a5 03 00    	mov    $0x3a5e0,%eax
   31828:	66 89 90 5e 01 00 00 	mov    %dx,0x15e(%eax)
   3182f:	c7 c0 e0 a5 03 00    	mov    $0x3a5e0,%eax
   31835:	66 c7 80 5a 01 00 00 	movw   $0x8,0x15a(%eax)
   3183c:	08 00 
   3183e:	c7 c0 e0 a5 03 00    	mov    $0x3a5e0,%eax
   31844:	c6 80 5d 01 00 00 8e 	movb   $0x8e,0x15d(%eax)
   3184b:	c7 c0 e0 a5 03 00    	mov    $0x3a5e0,%eax
   31851:	c6 80 5c 01 00 00 00 	movb   $0x0,0x15c(%eax)
   31858:	c7 c0 1f 32 03 00    	mov    $0x3321f,%eax
   3185e:	89 c2                	mov    %eax,%edx
   31860:	c7 c0 e0 a5 03 00    	mov    $0x3a5e0,%eax
   31866:	66 89 90 60 01 00 00 	mov    %dx,0x160(%eax)
   3186d:	c7 c0 1f 32 03 00    	mov    $0x3321f,%eax
   31873:	c1 e8 10             	shr    $0x10,%eax
   31876:	89 c2                	mov    %eax,%edx
   31878:	c7 c0 e0 a5 03 00    	mov    $0x3a5e0,%eax
   3187e:	66 89 90 66 01 00 00 	mov    %dx,0x166(%eax)
   31885:	c7 c0 e0 a5 03 00    	mov    $0x3a5e0,%eax
   3188b:	66 c7 80 62 01 00 00 	movw   $0x8,0x162(%eax)
   31892:	08 00 
   31894:	c7 c0 e0 a5 03 00    	mov    $0x3a5e0,%eax
   3189a:	c6 80 65 01 00 00 8e 	movb   $0x8e,0x165(%eax)
   318a1:	c7 c0 e0 a5 03 00    	mov    $0x3a5e0,%eax
   318a7:	c6 80 64 01 00 00 00 	movb   $0x0,0x164(%eax)
   318ae:	c7 c0 29 32 03 00    	mov    $0x33229,%eax
   318b4:	89 c2                	mov    %eax,%edx
   318b6:	c7 c0 e0 a5 03 00    	mov    $0x3a5e0,%eax
   318bc:	66 89 90 68 01 00 00 	mov    %dx,0x168(%eax)
   318c3:	c7 c0 29 32 03 00    	mov    $0x33229,%eax
   318c9:	c1 e8 10             	shr    $0x10,%eax
   318cc:	89 c2                	mov    %eax,%edx
   318ce:	c7 c0 e0 a5 03 00    	mov    $0x3a5e0,%eax
   318d4:	66 89 90 6e 01 00 00 	mov    %dx,0x16e(%eax)
   318db:	c7 c0 e0 a5 03 00    	mov    $0x3a5e0,%eax
   318e1:	66 c7 80 6a 01 00 00 	movw   $0x8,0x16a(%eax)
   318e8:	08 00 
   318ea:	c7 c0 e0 a5 03 00    	mov    $0x3a5e0,%eax
   318f0:	c6 80 6d 01 00 00 8e 	movb   $0x8e,0x16d(%eax)
   318f7:	c7 c0 e0 a5 03 00    	mov    $0x3a5e0,%eax
   318fd:	c6 80 6c 01 00 00 00 	movb   $0x0,0x16c(%eax)
   31904:	c7 c0 33 32 03 00    	mov    $0x33233,%eax
   3190a:	89 c2                	mov    %eax,%edx
   3190c:	c7 c0 e0 a5 03 00    	mov    $0x3a5e0,%eax
   31912:	66 89 90 70 01 00 00 	mov    %dx,0x170(%eax)
   31919:	c7 c0 33 32 03 00    	mov    $0x33233,%eax
   3191f:	c1 e8 10             	shr    $0x10,%eax
   31922:	89 c2                	mov    %eax,%edx
   31924:	c7 c0 e0 a5 03 00    	mov    $0x3a5e0,%eax
   3192a:	66 89 90 76 01 00 00 	mov    %dx,0x176(%eax)
   31931:	c7 c0 e0 a5 03 00    	mov    $0x3a5e0,%eax
   31937:	66 c7 80 72 01 00 00 	movw   $0x8,0x172(%eax)
   3193e:	08 00 
   31940:	c7 c0 e0 a5 03 00    	mov    $0x3a5e0,%eax
   31946:	c6 80 75 01 00 00 8e 	movb   $0x8e,0x175(%eax)
   3194d:	c7 c0 e0 a5 03 00    	mov    $0x3a5e0,%eax
   31953:	c6 80 74 01 00 00 00 	movb   $0x0,0x174(%eax)
   3195a:	c7 c0 3d 32 03 00    	mov    $0x3323d,%eax
   31960:	89 c2                	mov    %eax,%edx
   31962:	c7 c0 e0 a5 03 00    	mov    $0x3a5e0,%eax
   31968:	66 89 90 78 01 00 00 	mov    %dx,0x178(%eax)
   3196f:	c7 c0 3d 32 03 00    	mov    $0x3323d,%eax
   31975:	c1 e8 10             	shr    $0x10,%eax
   31978:	89 c2                	mov    %eax,%edx
   3197a:	c7 c0 e0 a5 03 00    	mov    $0x3a5e0,%eax
   31980:	66 89 90 7e 01 00 00 	mov    %dx,0x17e(%eax)
   31987:	c7 c0 e0 a5 03 00    	mov    $0x3a5e0,%eax
   3198d:	66 c7 80 7a 01 00 00 	movw   $0x8,0x17a(%eax)
   31994:	08 00 
   31996:	c7 c0 e0 a5 03 00    	mov    $0x3a5e0,%eax
   3199c:	c6 80 7d 01 00 00 8e 	movb   $0x8e,0x17d(%eax)
   319a3:	c7 c0 e0 a5 03 00    	mov    $0x3a5e0,%eax
   319a9:	c6 80 7c 01 00 00 00 	movb   $0x0,0x17c(%eax)
   319b0:	e8 2f 00 00 00       	call   319e4 <init_8259A>
   319b5:	90                   	nop
   319b6:	8b 5d fc             	mov    -0x4(%ebp),%ebx
   319b9:	c9                   	leave  
   319ba:	c3                   	ret    

000319bb <register_interrupt_handler>:
   319bb:	55                   	push   %ebp
   319bc:	89 e5                	mov    %esp,%ebp
   319be:	83 ec 04             	sub    $0x4,%esp
   319c1:	e8 85 18 00 00       	call   3324b <__x86.get_pc_thunk.ax>
   319c6:	05 8e 22 00 00       	add    $0x228e,%eax
   319cb:	8b 55 08             	mov    0x8(%ebp),%edx
   319ce:	88 55 fc             	mov    %dl,-0x4(%ebp)
   319d1:	0f b6 55 fc          	movzbl -0x4(%ebp),%edx
   319d5:	c7 c0 e0 ad 03 00    	mov    $0x3ade0,%eax
   319db:	8b 4d 0c             	mov    0xc(%ebp),%ecx
   319de:	89 0c 90             	mov    %ecx,(%eax,%edx,4)
   319e1:	90                   	nop
   319e2:	c9                   	leave  
   319e3:	c3                   	ret    

000319e4 <init_8259A>:
   319e4:	55                   	push   %ebp
   319e5:	89 e5                	mov    %esp,%ebp
   319e7:	53                   	push   %ebx
   319e8:	83 ec 04             	sub    $0x4,%esp
   319eb:	e8 57 18 00 00       	call   33247 <__x86.get_pc_thunk.bx>
   319f0:	81 c3 64 22 00 00    	add    $0x2264,%ebx
   319f6:	83 ec 08             	sub    $0x8,%esp
   319f9:	6a 11                	push   $0x11
   319fb:	6a 20                	push   $0x20
   319fd:	e8 97 13 00 00       	call   32d99 <outb>
   31a02:	83 c4 10             	add    $0x10,%esp
   31a05:	83 ec 08             	sub    $0x8,%esp
   31a08:	6a 11                	push   $0x11
   31a0a:	68 a0 00 00 00       	push   $0xa0
   31a0f:	e8 85 13 00 00       	call   32d99 <outb>
   31a14:	83 c4 10             	add    $0x10,%esp
   31a17:	83 ec 08             	sub    $0x8,%esp
   31a1a:	6a 20                	push   $0x20
   31a1c:	6a 21                	push   $0x21
   31a1e:	e8 76 13 00 00       	call   32d99 <outb>
   31a23:	83 c4 10             	add    $0x10,%esp
   31a26:	83 ec 08             	sub    $0x8,%esp
   31a29:	6a 28                	push   $0x28
   31a2b:	68 a1 00 00 00       	push   $0xa1
   31a30:	e8 64 13 00 00       	call   32d99 <outb>
   31a35:	83 c4 10             	add    $0x10,%esp
   31a38:	83 ec 08             	sub    $0x8,%esp
   31a3b:	6a 04                	push   $0x4
   31a3d:	6a 21                	push   $0x21
   31a3f:	e8 55 13 00 00       	call   32d99 <outb>
   31a44:	83 c4 10             	add    $0x10,%esp
   31a47:	83 ec 08             	sub    $0x8,%esp
   31a4a:	6a 02                	push   $0x2
   31a4c:	68 a1 00 00 00       	push   $0xa1
   31a51:	e8 43 13 00 00       	call   32d99 <outb>
   31a56:	83 c4 10             	add    $0x10,%esp
   31a59:	83 ec 08             	sub    $0x8,%esp
   31a5c:	6a 01                	push   $0x1
   31a5e:	6a 21                	push   $0x21
   31a60:	e8 34 13 00 00       	call   32d99 <outb>
   31a65:	83 c4 10             	add    $0x10,%esp
   31a68:	83 ec 08             	sub    $0x8,%esp
   31a6b:	6a 01                	push   $0x1
   31a6d:	68 a1 00 00 00       	push   $0xa1
   31a72:	e8 22 13 00 00       	call   32d99 <outb>
   31a77:	83 c4 10             	add    $0x10,%esp
   31a7a:	83 ec 08             	sub    $0x8,%esp
   31a7d:	6a 00                	push   $0x0
   31a7f:	6a 21                	push   $0x21
   31a81:	e8 13 13 00 00       	call   32d99 <outb>
   31a86:	83 c4 10             	add    $0x10,%esp
   31a89:	83 ec 08             	sub    $0x8,%esp
   31a8c:	6a 00                	push   $0x0
   31a8e:	68 a1 00 00 00       	push   $0xa1
   31a93:	e8 01 13 00 00       	call   32d99 <outb>
   31a98:	83 c4 10             	add    $0x10,%esp
   31a9b:	83 ec 0c             	sub    $0xc,%esp
   31a9e:	8d 83 a8 fd ff ff    	lea    -0x258(%ebx),%eax
   31aa4:	50                   	push   %eax
   31aa5:	e8 73 08 00 00       	call   3231d <printk>
   31aaa:	83 c4 10             	add    $0x10,%esp
   31aad:	90                   	nop
   31aae:	8b 5d fc             	mov    -0x4(%ebp),%ebx
   31ab1:	c9                   	leave  
   31ab2:	c3                   	ret    

00031ab3 <intr_test>:
   31ab3:	55                   	push   %ebp
   31ab4:	89 e5                	mov    %esp,%ebp
   31ab6:	53                   	push   %ebx
   31ab7:	83 ec 04             	sub    $0x4,%esp
   31aba:	e8 8c 17 00 00       	call   3324b <__x86.get_pc_thunk.ax>
   31abf:	05 95 21 00 00       	add    $0x2195,%eax
   31ac4:	83 ec 0c             	sub    $0xc,%esp
   31ac7:	8d 90 c8 fd ff ff    	lea    -0x238(%eax),%edx
   31acd:	52                   	push   %edx
   31ace:	89 c3                	mov    %eax,%ebx
   31ad0:	e8 48 08 00 00       	call   3231d <printk>
   31ad5:	83 c4 10             	add    $0x10,%esp
   31ad8:	90                   	nop
   31ad9:	8b 5d fc             	mov    -0x4(%ebp),%ebx
   31adc:	c9                   	leave  
   31add:	c3                   	ret    

00031ade <keyboard_handler>:
   31ade:	55                   	push   %ebp
   31adf:	89 e5                	mov    %esp,%ebp
   31ae1:	53                   	push   %ebx
   31ae2:	83 ec 14             	sub    $0x14,%esp
   31ae5:	e8 5d 17 00 00       	call   33247 <__x86.get_pc_thunk.bx>
   31aea:	81 c3 6a 21 00 00    	add    $0x216a,%ebx
   31af0:	83 ec 0c             	sub    $0xc,%esp
   31af3:	6a 64                	push   $0x64
   31af5:	e8 c8 12 00 00       	call   32dc2 <inb>
   31afa:	83 c4 10             	add    $0x10,%esp
   31afd:	88 45 f6             	mov    %al,-0xa(%ebp)
   31b00:	0f b6 45 f6          	movzbl -0xa(%ebp),%eax
   31b04:	83 e0 01             	and    $0x1,%eax
   31b07:	85 c0                	test   %eax,%eax
   31b09:	74 10                	je     31b1b <keyboard_handler+0x3d>
   31b0b:	83 ec 0c             	sub    $0xc,%esp
   31b0e:	6a 60                	push   $0x60
   31b10:	e8 ad 12 00 00       	call   32dc2 <inb>
   31b15:	83 c4 10             	add    $0x10,%esp
   31b18:	88 45 f7             	mov    %al,-0x9(%ebp)
   31b1b:	0f b6 45 f7          	movzbl -0x9(%ebp),%eax
   31b1f:	c7 c2 e0 a4 03 00    	mov    $0x3a4e0,%edx
   31b25:	0f b6 04 02          	movzbl (%edx,%eax,1),%eax
   31b29:	0f b6 c0             	movzbl %al,%eax
   31b2c:	50                   	push   %eax
   31b2d:	8d 83 d8 fd ff ff    	lea    -0x228(%ebx),%eax
   31b33:	50                   	push   %eax
   31b34:	6a 03                	push   $0x3
   31b36:	6a 04                	push   $0x4
   31b38:	e8 3a 08 00 00       	call   32377 <printk_color>
   31b3d:	83 c4 10             	add    $0x10,%esp
   31b40:	8b 5d fc             	mov    -0x4(%ebp),%ebx
   31b43:	c9                   	leave  
   31b44:	c3                   	ret    

00031b45 <init_keyboard>:
   31b45:	55                   	push   %ebp
   31b46:	89 e5                	mov    %esp,%ebp
   31b48:	53                   	push   %ebx
   31b49:	83 ec 04             	sub    $0x4,%esp
   31b4c:	e8 f6 16 00 00       	call   33247 <__x86.get_pc_thunk.bx>
   31b51:	81 c3 03 21 00 00    	add    $0x2103,%ebx
   31b57:	83 ec 08             	sub    $0x8,%esp
   31b5a:	8d 83 8a de ff ff    	lea    -0x2176(%ebx),%eax
   31b60:	50                   	push   %eax
   31b61:	6a 21                	push   $0x21
   31b63:	e8 53 fe ff ff       	call   319bb <register_interrupt_handler>
   31b68:	83 c4 10             	add    $0x10,%esp
   31b6b:	83 ec 0c             	sub    $0xc,%esp
   31b6e:	c7 c0 e0 a4 03 00    	mov    $0x3a4e0,%eax
   31b74:	50                   	push   %eax
   31b75:	e8 09 00 00 00       	call   31b83 <keymap_setup>
   31b7a:	83 c4 10             	add    $0x10,%esp
   31b7d:	90                   	nop
   31b7e:	8b 5d fc             	mov    -0x4(%ebp),%ebx
   31b81:	c9                   	leave  
   31b82:	c3                   	ret    

00031b83 <keymap_setup>:
   31b83:	55                   	push   %ebp
   31b84:	89 e5                	mov    %esp,%ebp
   31b86:	e8 c0 16 00 00       	call   3324b <__x86.get_pc_thunk.ax>
   31b8b:	05 c9 20 00 00       	add    $0x20c9,%eax
   31b90:	8b 45 08             	mov    0x8(%ebp),%eax
   31b93:	83 c0 1e             	add    $0x1e,%eax
   31b96:	c6 00 61             	movb   $0x61,(%eax)
   31b99:	8b 45 08             	mov    0x8(%ebp),%eax
   31b9c:	83 c0 30             	add    $0x30,%eax
   31b9f:	c6 00 62             	movb   $0x62,(%eax)
   31ba2:	8b 45 08             	mov    0x8(%ebp),%eax
   31ba5:	83 c0 2e             	add    $0x2e,%eax
   31ba8:	c6 00 63             	movb   $0x63,(%eax)
   31bab:	8b 45 08             	mov    0x8(%ebp),%eax
   31bae:	83 c0 20             	add    $0x20,%eax
   31bb1:	c6 00 64             	movb   $0x64,(%eax)
   31bb4:	8b 45 08             	mov    0x8(%ebp),%eax
   31bb7:	83 c0 12             	add    $0x12,%eax
   31bba:	c6 00 65             	movb   $0x65,(%eax)
   31bbd:	8b 45 08             	mov    0x8(%ebp),%eax
   31bc0:	83 c0 21             	add    $0x21,%eax
   31bc3:	c6 00 66             	movb   $0x66,(%eax)
   31bc6:	8b 45 08             	mov    0x8(%ebp),%eax
   31bc9:	83 c0 22             	add    $0x22,%eax
   31bcc:	c6 00 67             	movb   $0x67,(%eax)
   31bcf:	8b 45 08             	mov    0x8(%ebp),%eax
   31bd2:	83 c0 23             	add    $0x23,%eax
   31bd5:	c6 00 68             	movb   $0x68,(%eax)
   31bd8:	8b 45 08             	mov    0x8(%ebp),%eax
   31bdb:	83 c0 17             	add    $0x17,%eax
   31bde:	c6 00 69             	movb   $0x69,(%eax)
   31be1:	8b 45 08             	mov    0x8(%ebp),%eax
   31be4:	83 c0 24             	add    $0x24,%eax
   31be7:	c6 00 6a             	movb   $0x6a,(%eax)
   31bea:	8b 45 08             	mov    0x8(%ebp),%eax
   31bed:	83 c0 25             	add    $0x25,%eax
   31bf0:	c6 00 6b             	movb   $0x6b,(%eax)
   31bf3:	8b 45 08             	mov    0x8(%ebp),%eax
   31bf6:	83 c0 26             	add    $0x26,%eax
   31bf9:	c6 00 6c             	movb   $0x6c,(%eax)
   31bfc:	8b 45 08             	mov    0x8(%ebp),%eax
   31bff:	83 c0 32             	add    $0x32,%eax
   31c02:	c6 00 6d             	movb   $0x6d,(%eax)
   31c05:	8b 45 08             	mov    0x8(%ebp),%eax
   31c08:	83 c0 31             	add    $0x31,%eax
   31c0b:	c6 00 6e             	movb   $0x6e,(%eax)
   31c0e:	8b 45 08             	mov    0x8(%ebp),%eax
   31c11:	83 c0 18             	add    $0x18,%eax
   31c14:	c6 00 6f             	movb   $0x6f,(%eax)
   31c17:	8b 45 08             	mov    0x8(%ebp),%eax
   31c1a:	83 c0 19             	add    $0x19,%eax
   31c1d:	c6 00 70             	movb   $0x70,(%eax)
   31c20:	8b 45 08             	mov    0x8(%ebp),%eax
   31c23:	83 c0 10             	add    $0x10,%eax
   31c26:	c6 00 71             	movb   $0x71,(%eax)
   31c29:	8b 45 08             	mov    0x8(%ebp),%eax
   31c2c:	83 c0 13             	add    $0x13,%eax
   31c2f:	c6 00 72             	movb   $0x72,(%eax)
   31c32:	8b 45 08             	mov    0x8(%ebp),%eax
   31c35:	83 c0 1f             	add    $0x1f,%eax
   31c38:	c6 00 73             	movb   $0x73,(%eax)
   31c3b:	8b 45 08             	mov    0x8(%ebp),%eax
   31c3e:	83 c0 14             	add    $0x14,%eax
   31c41:	c6 00 74             	movb   $0x74,(%eax)
   31c44:	8b 45 08             	mov    0x8(%ebp),%eax
   31c47:	83 c0 16             	add    $0x16,%eax
   31c4a:	c6 00 75             	movb   $0x75,(%eax)
   31c4d:	8b 45 08             	mov    0x8(%ebp),%eax
   31c50:	83 c0 2f             	add    $0x2f,%eax
   31c53:	c6 00 76             	movb   $0x76,(%eax)
   31c56:	8b 45 08             	mov    0x8(%ebp),%eax
   31c59:	83 c0 11             	add    $0x11,%eax
   31c5c:	c6 00 77             	movb   $0x77,(%eax)
   31c5f:	8b 45 08             	mov    0x8(%ebp),%eax
   31c62:	83 c0 2d             	add    $0x2d,%eax
   31c65:	c6 00 78             	movb   $0x78,(%eax)
   31c68:	8b 45 08             	mov    0x8(%ebp),%eax
   31c6b:	83 c0 15             	add    $0x15,%eax
   31c6e:	c6 00 79             	movb   $0x79,(%eax)
   31c71:	8b 45 08             	mov    0x8(%ebp),%eax
   31c74:	83 c0 2c             	add    $0x2c,%eax
   31c77:	c6 00 7a             	movb   $0x7a,(%eax)
   31c7a:	8b 45 08             	mov    0x8(%ebp),%eax
   31c7d:	83 c0 0b             	add    $0xb,%eax
   31c80:	c6 00 30             	movb   $0x30,(%eax)
   31c83:	8b 45 08             	mov    0x8(%ebp),%eax
   31c86:	83 c0 02             	add    $0x2,%eax
   31c89:	c6 00 31             	movb   $0x31,(%eax)
   31c8c:	8b 45 08             	mov    0x8(%ebp),%eax
   31c8f:	83 c0 03             	add    $0x3,%eax
   31c92:	c6 00 32             	movb   $0x32,(%eax)
   31c95:	8b 45 08             	mov    0x8(%ebp),%eax
   31c98:	83 c0 04             	add    $0x4,%eax
   31c9b:	c6 00 33             	movb   $0x33,(%eax)
   31c9e:	8b 45 08             	mov    0x8(%ebp),%eax
   31ca1:	83 c0 05             	add    $0x5,%eax
   31ca4:	c6 00 34             	movb   $0x34,(%eax)
   31ca7:	8b 45 08             	mov    0x8(%ebp),%eax
   31caa:	83 c0 06             	add    $0x6,%eax
   31cad:	c6 00 35             	movb   $0x35,(%eax)
   31cb0:	8b 45 08             	mov    0x8(%ebp),%eax
   31cb3:	83 c0 07             	add    $0x7,%eax
   31cb6:	c6 00 36             	movb   $0x36,(%eax)
   31cb9:	8b 45 08             	mov    0x8(%ebp),%eax
   31cbc:	83 c0 08             	add    $0x8,%eax
   31cbf:	c6 00 37             	movb   $0x37,(%eax)
   31cc2:	8b 45 08             	mov    0x8(%ebp),%eax
   31cc5:	83 c0 09             	add    $0x9,%eax
   31cc8:	c6 00 38             	movb   $0x38,(%eax)
   31ccb:	8b 45 08             	mov    0x8(%ebp),%eax
   31cce:	83 c0 0a             	add    $0xa,%eax
   31cd1:	c6 00 39             	movb   $0x39,(%eax)
   31cd4:	8b 45 08             	mov    0x8(%ebp),%eax
   31cd7:	83 c0 27             	add    $0x27,%eax
   31cda:	c6 00 3b             	movb   $0x3b,(%eax)
   31cdd:	8b 45 08             	mov    0x8(%ebp),%eax
   31ce0:	83 c0 28             	add    $0x28,%eax
   31ce3:	c6 00 27             	movb   $0x27,(%eax)
   31ce6:	8b 45 08             	mov    0x8(%ebp),%eax
   31ce9:	83 c0 33             	add    $0x33,%eax
   31cec:	c6 00 2c             	movb   $0x2c,(%eax)
   31cef:	8b 45 08             	mov    0x8(%ebp),%eax
   31cf2:	83 c0 34             	add    $0x34,%eax
   31cf5:	c6 00 2e             	movb   $0x2e,(%eax)
   31cf8:	8b 45 08             	mov    0x8(%ebp),%eax
   31cfb:	83 c0 27             	add    $0x27,%eax
   31cfe:	c6 00 3b             	movb   $0x3b,(%eax)
   31d01:	8b 45 08             	mov    0x8(%ebp),%eax
   31d04:	83 c0 1c             	add    $0x1c,%eax
   31d07:	c6 00 0a             	movb   $0xa,(%eax)
   31d0a:	8b 45 08             	mov    0x8(%ebp),%eax
   31d0d:	83 c0 0d             	add    $0xd,%eax
   31d10:	c6 00 3d             	movb   $0x3d,(%eax)
   31d13:	8b 45 08             	mov    0x8(%ebp),%eax
   31d16:	83 c0 0c             	add    $0xc,%eax
   31d19:	c6 00 2d             	movb   $0x2d,(%eax)
   31d1c:	8b 45 08             	mov    0x8(%ebp),%eax
   31d1f:	83 c0 2b             	add    $0x2b,%eax
   31d22:	c6 00 5c             	movb   $0x5c,(%eax)
   31d25:	8b 45 08             	mov    0x8(%ebp),%eax
   31d28:	83 c0 35             	add    $0x35,%eax
   31d2b:	c6 00 2f             	movb   $0x2f,(%eax)
   31d2e:	8b 45 08             	mov    0x8(%ebp),%eax
   31d31:	83 c0 1a             	add    $0x1a,%eax
   31d34:	c6 00 5b             	movb   $0x5b,(%eax)
   31d37:	8b 45 08             	mov    0x8(%ebp),%eax
   31d3a:	83 c0 1b             	add    $0x1b,%eax
   31d3d:	c6 00 5d             	movb   $0x5d,(%eax)
   31d40:	8b 45 08             	mov    0x8(%ebp),%eax
   31d43:	83 c0 29             	add    $0x29,%eax
   31d46:	c6 00 7e             	movb   $0x7e,(%eax)
   31d49:	8b 45 08             	mov    0x8(%ebp),%eax
   31d4c:	83 c0 0f             	add    $0xf,%eax
   31d4f:	c6 00 09             	movb   $0x9,(%eax)
   31d52:	8b 45 08             	mov    0x8(%ebp),%eax
   31d55:	83 c0 39             	add    $0x39,%eax
   31d58:	c6 00 20             	movb   $0x20,(%eax)
   31d5b:	8b 45 08             	mov    0x8(%ebp),%eax
   31d5e:	83 c0 0e             	add    $0xe,%eax
   31d61:	c6 00 08             	movb   $0x8,(%eax)
   31d64:	90                   	nop
   31d65:	5d                   	pop    %ebp
   31d66:	c3                   	ret    

00031d67 <set_cursor>:
   31d67:	55                   	push   %ebp
   31d68:	89 e5                	mov    %esp,%ebp
   31d6a:	53                   	push   %ebx
   31d6b:	83 ec 14             	sub    $0x14,%esp
   31d6e:	e8 d4 14 00 00       	call   33247 <__x86.get_pc_thunk.bx>
   31d73:	81 c3 e1 1e 00 00    	add    $0x1ee1,%ebx
   31d79:	66 c7 45 f6 00 00    	movw   $0x0,-0xa(%ebp)
   31d7f:	83 ec 08             	sub    $0x8,%esp
   31d82:	6a 0f                	push   $0xf
   31d84:	68 d4 03 00 00       	push   $0x3d4
   31d89:	e8 0b 10 00 00       	call   32d99 <outb>
   31d8e:	83 c4 10             	add    $0x10,%esp
   31d91:	0f b7 45 f6          	movzwl -0xa(%ebp),%eax
   31d95:	0f b6 c0             	movzbl %al,%eax
   31d98:	83 ec 08             	sub    $0x8,%esp
   31d9b:	50                   	push   %eax
   31d9c:	68 d5 03 00 00       	push   $0x3d5
   31da1:	e8 f3 0f 00 00       	call   32d99 <outb>
   31da6:	83 c4 10             	add    $0x10,%esp
   31da9:	83 ec 08             	sub    $0x8,%esp
   31dac:	68 fe 00 00 00       	push   $0xfe
   31db1:	68 d4 03 00 00       	push   $0x3d4
   31db6:	e8 de 0f 00 00       	call   32d99 <outb>
   31dbb:	83 c4 10             	add    $0x10,%esp
   31dbe:	0f b7 45 f6          	movzwl -0xa(%ebp),%eax
   31dc2:	66 c1 e8 08          	shr    $0x8,%ax
   31dc6:	0f b6 c0             	movzbl %al,%eax
   31dc9:	83 ec 08             	sub    $0x8,%esp
   31dcc:	50                   	push   %eax
   31dcd:	68 d5 03 00 00       	push   $0x3d5
   31dd2:	e8 c2 0f 00 00       	call   32d99 <outb>
   31dd7:	83 c4 10             	add    $0x10,%esp
   31dda:	90                   	nop
   31ddb:	8b 5d fc             	mov    -0x4(%ebp),%ebx
   31dde:	c9                   	leave  
   31ddf:	c3                   	ret    

00031de0 <move_cursor>:
   31de0:	55                   	push   %ebp
   31de1:	89 e5                	mov    %esp,%ebp
   31de3:	53                   	push   %ebx
   31de4:	83 ec 14             	sub    $0x14,%esp
   31de7:	e8 5b 14 00 00       	call   33247 <__x86.get_pc_thunk.bx>
   31dec:	81 c3 68 1e 00 00    	add    $0x1e68,%ebx
   31df2:	c7 c0 61 7c 03 00    	mov    $0x37c61,%eax
   31df8:	0f b6 00             	movzbl (%eax),%eax
   31dfb:	0f b6 d0             	movzbl %al,%edx
   31dfe:	89 d0                	mov    %edx,%eax
   31e00:	c1 e0 03             	shl    $0x3,%eax
   31e03:	01 d0                	add    %edx,%eax
   31e05:	8d 14 c5 00 00 00 00 	lea    0x0(,%eax,8),%edx
   31e0c:	01 d0                	add    %edx,%eax
   31e0e:	66 89 45 f6          	mov    %ax,-0xa(%ebp)
   31e12:	83 ec 08             	sub    $0x8,%esp
   31e15:	6a 0e                	push   $0xe
   31e17:	68 d4 03 00 00       	push   $0x3d4
   31e1c:	e8 78 0f 00 00       	call   32d99 <outb>
   31e21:	83 c4 10             	add    $0x10,%esp
   31e24:	0f b7 45 f6          	movzwl -0xa(%ebp),%eax
   31e28:	66 c1 e8 08          	shr    $0x8,%ax
   31e2c:	0f b6 c0             	movzbl %al,%eax
   31e2f:	83 ec 08             	sub    $0x8,%esp
   31e32:	50                   	push   %eax
   31e33:	68 d5 03 00 00       	push   $0x3d5
   31e38:	e8 5c 0f 00 00       	call   32d99 <outb>
   31e3d:	83 c4 10             	add    $0x10,%esp
   31e40:	83 ec 08             	sub    $0x8,%esp
   31e43:	6a 0f                	push   $0xf
   31e45:	68 d4 03 00 00       	push   $0x3d4
   31e4a:	e8 4a 0f 00 00       	call   32d99 <outb>
   31e4f:	83 c4 10             	add    $0x10,%esp
   31e52:	0f b7 45 f6          	movzwl -0xa(%ebp),%eax
   31e56:	0f b6 c0             	movzbl %al,%eax
   31e59:	83 ec 08             	sub    $0x8,%esp
   31e5c:	50                   	push   %eax
   31e5d:	68 d5 03 00 00       	push   $0x3d5
   31e62:	e8 32 0f 00 00       	call   32d99 <outb>
   31e67:	83 c4 10             	add    $0x10,%esp
   31e6a:	90                   	nop
   31e6b:	8b 5d fc             	mov    -0x4(%ebp),%ebx
   31e6e:	c9                   	leave  
   31e6f:	c3                   	ret    

00031e70 <console_test>:
   31e70:	55                   	push   %ebp
   31e71:	89 e5                	mov    %esp,%ebp
   31e73:	e8 d3 13 00 00       	call   3324b <__x86.get_pc_thunk.ax>
   31e78:	05 dc 1d 00 00       	add    $0x1ddc,%eax
   31e7d:	90                   	nop
   31e7e:	5d                   	pop    %ebp
   31e7f:	c3                   	ret    

00031e80 <swap>:
   31e80:	55                   	push   %ebp
   31e81:	89 e5                	mov    %esp,%ebp
   31e83:	83 ec 10             	sub    $0x10,%esp
   31e86:	e8 c0 13 00 00       	call   3324b <__x86.get_pc_thunk.ax>
   31e8b:	05 c9 1d 00 00       	add    $0x1dc9,%eax
   31e90:	8b 45 08             	mov    0x8(%ebp),%eax
   31e93:	0f b6 00             	movzbl (%eax),%eax
   31e96:	88 45 ff             	mov    %al,-0x1(%ebp)
   31e99:	8b 45 0c             	mov    0xc(%ebp),%eax
   31e9c:	0f b6 10             	movzbl (%eax),%edx
   31e9f:	8b 45 08             	mov    0x8(%ebp),%eax
   31ea2:	88 10                	mov    %dl,(%eax)
   31ea4:	8b 45 0c             	mov    0xc(%ebp),%eax
   31ea7:	0f b6 55 ff          	movzbl -0x1(%ebp),%edx
   31eab:	88 10                	mov    %dl,(%eax)
   31ead:	90                   	nop
   31eae:	c9                   	leave  
   31eaf:	c3                   	ret    

00031eb0 <reverse>:
   31eb0:	55                   	push   %ebp
   31eb1:	89 e5                	mov    %esp,%ebp
   31eb3:	83 ec 10             	sub    $0x10,%esp
   31eb6:	e8 90 13 00 00       	call   3324b <__x86.get_pc_thunk.ax>
   31ebb:	05 99 1d 00 00       	add    $0x1d99,%eax
   31ec0:	c7 45 fc 00 00 00 00 	movl   $0x0,-0x4(%ebp)
   31ec7:	8b 45 0c             	mov    0xc(%ebp),%eax
   31eca:	83 e8 01             	sub    $0x1,%eax
   31ecd:	89 45 f8             	mov    %eax,-0x8(%ebp)
   31ed0:	eb 22                	jmp    31ef4 <reverse+0x44>
   31ed2:	8b 55 08             	mov    0x8(%ebp),%edx
   31ed5:	8b 45 f8             	mov    -0x8(%ebp),%eax
   31ed8:	01 c2                	add    %eax,%edx
   31eda:	8b 4d 08             	mov    0x8(%ebp),%ecx
   31edd:	8b 45 fc             	mov    -0x4(%ebp),%eax
   31ee0:	01 c8                	add    %ecx,%eax
   31ee2:	52                   	push   %edx
   31ee3:	50                   	push   %eax
   31ee4:	e8 97 ff ff ff       	call   31e80 <swap>
   31ee9:	83 c4 08             	add    $0x8,%esp
   31eec:	83 45 fc 01          	addl   $0x1,-0x4(%ebp)
   31ef0:	83 6d f8 01          	subl   $0x1,-0x8(%ebp)
   31ef4:	8b 45 fc             	mov    -0x4(%ebp),%eax
   31ef7:	3b 45 f8             	cmp    -0x8(%ebp),%eax
   31efa:	72 d6                	jb     31ed2 <reverse+0x22>
   31efc:	90                   	nop
   31efd:	c9                   	leave  
   31efe:	c3                   	ret    

00031eff <console_clear>:
   31eff:	55                   	push   %ebp
   31f00:	89 e5                	mov    %esp,%ebp
   31f02:	83 ec 18             	sub    $0x18,%esp
   31f05:	e8 41 13 00 00       	call   3324b <__x86.get_pc_thunk.ax>
   31f0a:	05 4a 1d 00 00       	add    $0x1d4a,%eax
   31f0f:	c6 45 f5 0f          	movb   $0xf,-0xb(%ebp)
   31f13:	0f b6 55 f5          	movzbl -0xb(%ebp),%edx
   31f17:	c1 e2 08             	shl    $0x8,%edx
   31f1a:	83 ca 20             	or     $0x20,%edx
   31f1d:	66 89 55 f2          	mov    %dx,-0xe(%ebp)
   31f21:	66 c7 45 f6 00 00    	movw   $0x0,-0xa(%ebp)
   31f27:	eb 20                	jmp    31f49 <console_clear+0x4a>
   31f29:	8b 90 fc ff ff ff    	mov    -0x4(%eax),%edx
   31f2f:	0f b7 4d f6          	movzwl -0xa(%ebp),%ecx
   31f33:	01 c9                	add    %ecx,%ecx
   31f35:	01 d1                	add    %edx,%ecx
   31f37:	0f b7 55 f2          	movzwl -0xe(%ebp),%edx
   31f3b:	66 89 11             	mov    %dx,(%ecx)
   31f3e:	0f b7 55 f6          	movzwl -0xa(%ebp),%edx
   31f42:	83 c2 01             	add    $0x1,%edx
   31f45:	66 89 55 f6          	mov    %dx,-0xa(%ebp)
   31f49:	66 81 7d f6 bf 08    	cmpw   $0x8bf,-0xa(%ebp)
   31f4f:	76 d8                	jbe    31f29 <console_clear+0x2a>
   31f51:	c7 c2 60 7c 03 00    	mov    $0x37c60,%edx
   31f57:	c6 02 00             	movb   $0x0,(%edx)
   31f5a:	c7 c0 61 7c 03 00    	mov    $0x37c61,%eax
   31f60:	c6 00 00             	movb   $0x0,(%eax)
   31f63:	e8 78 fe ff ff       	call   31de0 <move_cursor>
   31f68:	90                   	nop
   31f69:	c9                   	leave  
   31f6a:	c3                   	ret    

00031f6b <console_write>:
   31f6b:	55                   	push   %ebp
   31f6c:	89 e5                	mov    %esp,%ebp
   31f6e:	83 ec 08             	sub    $0x8,%esp
   31f71:	e8 d5 12 00 00       	call   3324b <__x86.get_pc_thunk.ax>
   31f76:	05 de 1c 00 00       	add    $0x1cde,%eax
   31f7b:	eb 1f                	jmp    31f9c <console_write+0x31>
   31f7d:	8b 45 08             	mov    0x8(%ebp),%eax
   31f80:	8d 50 01             	lea    0x1(%eax),%edx
   31f83:	89 55 08             	mov    %edx,0x8(%ebp)
   31f86:	0f b6 00             	movzbl (%eax),%eax
   31f89:	0f be c0             	movsbl %al,%eax
   31f8c:	83 ec 04             	sub    $0x4,%esp
   31f8f:	6a 0f                	push   $0xf
   31f91:	6a 00                	push   $0x0
   31f93:	50                   	push   %eax
   31f94:	e8 01 01 00 00       	call   3209a <console_putc_color>
   31f99:	83 c4 10             	add    $0x10,%esp
   31f9c:	8b 45 08             	mov    0x8(%ebp),%eax
   31f9f:	0f b6 00             	movzbl (%eax),%eax
   31fa2:	84 c0                	test   %al,%al
   31fa4:	75 d7                	jne    31f7d <console_write+0x12>
   31fa6:	90                   	nop
   31fa7:	c9                   	leave  
   31fa8:	c3                   	ret    

00031fa9 <console_write_color>:
   31fa9:	55                   	push   %ebp
   31faa:	89 e5                	mov    %esp,%ebp
   31fac:	83 ec 08             	sub    $0x8,%esp
   31faf:	e8 97 12 00 00       	call   3324b <__x86.get_pc_thunk.ax>
   31fb4:	05 a0 1c 00 00       	add    $0x1ca0,%eax
   31fb9:	eb 21                	jmp    31fdc <console_write_color+0x33>
   31fbb:	8b 45 08             	mov    0x8(%ebp),%eax
   31fbe:	8d 50 01             	lea    0x1(%eax),%edx
   31fc1:	89 55 08             	mov    %edx,0x8(%ebp)
   31fc4:	0f b6 00             	movzbl (%eax),%eax
   31fc7:	0f be c0             	movsbl %al,%eax
   31fca:	83 ec 04             	sub    $0x4,%esp
   31fcd:	ff 75 10             	pushl  0x10(%ebp)
   31fd0:	ff 75 0c             	pushl  0xc(%ebp)
   31fd3:	50                   	push   %eax
   31fd4:	e8 c1 00 00 00       	call   3209a <console_putc_color>
   31fd9:	83 c4 10             	add    $0x10,%esp
   31fdc:	8b 45 08             	mov    0x8(%ebp),%eax
   31fdf:	0f b6 00             	movzbl (%eax),%eax
   31fe2:	84 c0                	test   %al,%al
   31fe4:	75 d5                	jne    31fbb <console_write_color+0x12>
   31fe6:	90                   	nop
   31fe7:	c9                   	leave  
   31fe8:	c3                   	ret    

00031fe9 <scoll>:
   31fe9:	55                   	push   %ebp
   31fea:	89 e5                	mov    %esp,%ebp
   31fec:	53                   	push   %ebx
   31fed:	83 ec 10             	sub    $0x10,%esp
   31ff0:	e8 56 12 00 00       	call   3324b <__x86.get_pc_thunk.ax>
   31ff5:	05 5f 1c 00 00       	add    $0x1c5f,%eax
   31ffa:	c6 45 f9 0f          	movb   $0xf,-0x7(%ebp)
   31ffe:	0f b6 55 f9          	movzbl -0x7(%ebp),%edx
   32002:	c1 e2 08             	shl    $0x8,%edx
   32005:	83 ca 20             	or     $0x20,%edx
   32008:	66 89 55 f6          	mov    %dx,-0xa(%ebp)
   3200c:	c7 c2 61 7c 03 00    	mov    $0x37c61,%edx
   32012:	0f b6 12             	movzbl (%edx),%edx
   32015:	80 fa 18             	cmp    $0x18,%dl
   32018:	76 79                	jbe    32093 <scoll+0xaa>
   3201a:	66 c7 45 fa 00 00    	movw   $0x0,-0x6(%ebp)
   32020:	eb 30                	jmp    32052 <scoll+0x69>
   32022:	8b 90 fc ff ff ff    	mov    -0x4(%eax),%edx
   32028:	0f b7 4d fa          	movzwl -0x6(%ebp),%ecx
   3202c:	83 c1 50             	add    $0x50,%ecx
   3202f:	01 c9                	add    %ecx,%ecx
   32031:	01 ca                	add    %ecx,%edx
   32033:	8b 88 fc ff ff ff    	mov    -0x4(%eax),%ecx
   32039:	0f b7 5d fa          	movzwl -0x6(%ebp),%ebx
   3203d:	01 db                	add    %ebx,%ebx
   3203f:	01 d9                	add    %ebx,%ecx
   32041:	0f b7 12             	movzwl (%edx),%edx
   32044:	66 89 11             	mov    %dx,(%ecx)
   32047:	0f b7 55 fa          	movzwl -0x6(%ebp),%edx
   3204b:	83 c2 01             	add    $0x1,%edx
   3204e:	66 89 55 fa          	mov    %dx,-0x6(%ebp)
   32052:	66 81 7d fa 7f 07    	cmpw   $0x77f,-0x6(%ebp)
   32058:	76 c8                	jbe    32022 <scoll+0x39>
   3205a:	66 c7 45 fa 80 07    	movw   $0x780,-0x6(%ebp)
   32060:	eb 20                	jmp    32082 <scoll+0x99>
   32062:	8b 90 fc ff ff ff    	mov    -0x4(%eax),%edx
   32068:	0f b7 4d fa          	movzwl -0x6(%ebp),%ecx
   3206c:	01 c9                	add    %ecx,%ecx
   3206e:	01 d1                	add    %edx,%ecx
   32070:	0f b7 55 f6          	movzwl -0xa(%ebp),%edx
   32074:	66 89 11             	mov    %dx,(%ecx)
   32077:	0f b7 55 fa          	movzwl -0x6(%ebp),%edx
   3207b:	83 c2 01             	add    $0x1,%edx
   3207e:	66 89 55 fa          	mov    %dx,-0x6(%ebp)
   32082:	66 81 7d fa cf 07    	cmpw   $0x7cf,-0x6(%ebp)
   32088:	76 d8                	jbe    32062 <scoll+0x79>
   3208a:	c7 c0 61 7c 03 00    	mov    $0x37c61,%eax
   32090:	c6 00 18             	movb   $0x18,(%eax)
   32093:	90                   	nop
   32094:	83 c4 10             	add    $0x10,%esp
   32097:	5b                   	pop    %ebx
   32098:	5d                   	pop    %ebp
   32099:	c3                   	ret    

0003209a <console_putc_color>:
   3209a:	55                   	push   %ebp
   3209b:	89 e5                	mov    %esp,%ebp
   3209d:	56                   	push   %esi
   3209e:	53                   	push   %ebx
   3209f:	83 ec 20             	sub    $0x20,%esp
   320a2:	e8 a4 11 00 00       	call   3324b <__x86.get_pc_thunk.ax>
   320a7:	05 ad 1b 00 00       	add    $0x1bad,%eax
   320ac:	8b 55 08             	mov    0x8(%ebp),%edx
   320af:	88 55 e4             	mov    %dl,-0x1c(%ebp)
   320b2:	8b 55 0c             	mov    0xc(%ebp),%edx
   320b5:	89 d1                	mov    %edx,%ecx
   320b7:	c1 e1 04             	shl    $0x4,%ecx
   320ba:	8b 55 10             	mov    0x10(%ebp),%edx
   320bd:	83 e2 0f             	and    $0xf,%edx
   320c0:	09 ca                	or     %ecx,%edx
   320c2:	88 55 f7             	mov    %dl,-0x9(%ebp)
   320c5:	0f b6 55 f7          	movzbl -0x9(%ebp),%edx
   320c9:	c1 e2 08             	shl    $0x8,%edx
   320cc:	66 89 55 f4          	mov    %dx,-0xc(%ebp)
   320d0:	80 7d e4 08          	cmpb   $0x8,-0x1c(%ebp)
   320d4:	75 26                	jne    320fc <console_putc_color+0x62>
   320d6:	c7 c2 60 7c 03 00    	mov    $0x37c60,%edx
   320dc:	0f b6 12             	movzbl (%edx),%edx
   320df:	84 d2                	test   %dl,%dl
   320e1:	74 19                	je     320fc <console_putc_color+0x62>
   320e3:	c7 c2 60 7c 03 00    	mov    $0x37c60,%edx
   320e9:	0f b6 12             	movzbl (%edx),%edx
   320ec:	8d 4a ff             	lea    -0x1(%edx),%ecx
   320ef:	c7 c2 60 7c 03 00    	mov    $0x37c60,%edx
   320f5:	88 0a                	mov    %cl,(%edx)
   320f7:	e9 b9 00 00 00       	jmp    321b5 <console_putc_color+0x11b>
   320fc:	80 7d e4 09          	cmpb   $0x9,-0x1c(%ebp)
   32100:	75 1e                	jne    32120 <console_putc_color+0x86>
   32102:	c7 c2 60 7c 03 00    	mov    $0x37c60,%edx
   32108:	0f b6 12             	movzbl (%edx),%edx
   3210b:	83 c2 08             	add    $0x8,%edx
   3210e:	89 d1                	mov    %edx,%ecx
   32110:	83 e1 f8             	and    $0xfffffff8,%ecx
   32113:	c7 c2 60 7c 03 00    	mov    $0x37c60,%edx
   32119:	88 0a                	mov    %cl,(%edx)
   3211b:	e9 95 00 00 00       	jmp    321b5 <console_putc_color+0x11b>
   32120:	80 7d e4 0d          	cmpb   $0xd,-0x1c(%ebp)
   32124:	75 0e                	jne    32134 <console_putc_color+0x9a>
   32126:	c7 c2 60 7c 03 00    	mov    $0x37c60,%edx
   3212c:	c6 02 00             	movb   $0x0,(%edx)
   3212f:	e9 81 00 00 00       	jmp    321b5 <console_putc_color+0x11b>
   32134:	80 7d e4 0a          	cmpb   $0xa,-0x1c(%ebp)
   32138:	75 1f                	jne    32159 <console_putc_color+0xbf>
   3213a:	c7 c2 60 7c 03 00    	mov    $0x37c60,%edx
   32140:	c6 02 00             	movb   $0x0,(%edx)
   32143:	c7 c2 61 7c 03 00    	mov    $0x37c61,%edx
   32149:	0f b6 12             	movzbl (%edx),%edx
   3214c:	8d 4a 01             	lea    0x1(%edx),%ecx
   3214f:	c7 c2 61 7c 03 00    	mov    $0x37c61,%edx
   32155:	88 0a                	mov    %cl,(%edx)
   32157:	eb 5c                	jmp    321b5 <console_putc_color+0x11b>
   32159:	80 7d e4 1f          	cmpb   $0x1f,-0x1c(%ebp)
   3215d:	7e 56                	jle    321b5 <console_putc_color+0x11b>
   3215f:	66 0f be 4d e4       	movsbw -0x1c(%ebp),%cx
   32164:	0f b7 55 f4          	movzwl -0xc(%ebp),%edx
   32168:	89 ce                	mov    %ecx,%esi
   3216a:	09 d6                	or     %edx,%esi
   3216c:	8b 98 fc ff ff ff    	mov    -0x4(%eax),%ebx
   32172:	c7 c2 61 7c 03 00    	mov    $0x37c61,%edx
   32178:	0f b6 12             	movzbl (%edx),%edx
   3217b:	0f b6 ca             	movzbl %dl,%ecx
   3217e:	89 ca                	mov    %ecx,%edx
   32180:	c1 e2 02             	shl    $0x2,%edx
   32183:	01 ca                	add    %ecx,%edx
   32185:	c1 e2 04             	shl    $0x4,%edx
   32188:	89 d1                	mov    %edx,%ecx
   3218a:	c7 c2 60 7c 03 00    	mov    $0x37c60,%edx
   32190:	0f b6 12             	movzbl (%edx),%edx
   32193:	0f b6 d2             	movzbl %dl,%edx
   32196:	01 ca                	add    %ecx,%edx
   32198:	01 d2                	add    %edx,%edx
   3219a:	01 da                	add    %ebx,%edx
   3219c:	89 f1                	mov    %esi,%ecx
   3219e:	66 89 0a             	mov    %cx,(%edx)
   321a1:	c7 c2 60 7c 03 00    	mov    $0x37c60,%edx
   321a7:	0f b6 12             	movzbl (%edx),%edx
   321aa:	8d 4a 01             	lea    0x1(%edx),%ecx
   321ad:	c7 c2 60 7c 03 00    	mov    $0x37c60,%edx
   321b3:	88 0a                	mov    %cl,(%edx)
   321b5:	c7 c2 60 7c 03 00    	mov    $0x37c60,%edx
   321bb:	0f b6 12             	movzbl (%edx),%edx
   321be:	80 fa 4f             	cmp    $0x4f,%dl
   321c1:	76 1d                	jbe    321e0 <console_putc_color+0x146>
   321c3:	c7 c2 60 7c 03 00    	mov    $0x37c60,%edx
   321c9:	c6 02 00             	movb   $0x0,(%edx)
   321cc:	c7 c2 61 7c 03 00    	mov    $0x37c61,%edx
   321d2:	0f b6 12             	movzbl (%edx),%edx
   321d5:	83 c2 01             	add    $0x1,%edx
   321d8:	c7 c0 61 7c 03 00    	mov    $0x37c61,%eax
   321de:	88 10                	mov    %dl,(%eax)
   321e0:	e8 04 fe ff ff       	call   31fe9 <scoll>
   321e5:	e8 f6 fb ff ff       	call   31de0 <move_cursor>
   321ea:	90                   	nop
   321eb:	83 c4 20             	add    $0x20,%esp
   321ee:	5b                   	pop    %ebx
   321ef:	5e                   	pop    %esi
   321f0:	5d                   	pop    %ebp
   321f1:	c3                   	ret    

000321f2 <skip_atoi>:
   321f2:	55                   	push   %ebp
   321f3:	89 e5                	mov    %esp,%ebp
   321f5:	53                   	push   %ebx
   321f6:	83 ec 10             	sub    $0x10,%esp
   321f9:	e8 4d 10 00 00       	call   3324b <__x86.get_pc_thunk.ax>
   321fe:	05 56 1a 00 00       	add    $0x1a56,%eax
   32203:	c7 45 f8 00 00 00 00 	movl   $0x0,-0x8(%ebp)
   3220a:	eb 29                	jmp    32235 <skip_atoi+0x43>
   3220c:	8b 55 f8             	mov    -0x8(%ebp),%edx
   3220f:	89 d0                	mov    %edx,%eax
   32211:	c1 e0 02             	shl    $0x2,%eax
   32214:	01 d0                	add    %edx,%eax
   32216:	01 c0                	add    %eax,%eax
   32218:	89 c3                	mov    %eax,%ebx
   3221a:	8b 45 08             	mov    0x8(%ebp),%eax
   3221d:	8b 00                	mov    (%eax),%eax
   3221f:	8d 48 01             	lea    0x1(%eax),%ecx
   32222:	8b 55 08             	mov    0x8(%ebp),%edx
   32225:	89 0a                	mov    %ecx,(%edx)
   32227:	0f b6 00             	movzbl (%eax),%eax
   3222a:	0f be c0             	movsbl %al,%eax
   3222d:	01 d8                	add    %ebx,%eax
   3222f:	83 e8 30             	sub    $0x30,%eax
   32232:	89 45 f8             	mov    %eax,-0x8(%ebp)
   32235:	8b 45 08             	mov    0x8(%ebp),%eax
   32238:	8b 00                	mov    (%eax),%eax
   3223a:	0f b6 00             	movzbl (%eax),%eax
   3223d:	3c 2f                	cmp    $0x2f,%al
   3223f:	7e 0c                	jle    3224d <skip_atoi+0x5b>
   32241:	8b 45 08             	mov    0x8(%ebp),%eax
   32244:	8b 00                	mov    (%eax),%eax
   32246:	0f b6 00             	movzbl (%eax),%eax
   32249:	3c 39                	cmp    $0x39,%al
   3224b:	7e bf                	jle    3220c <skip_atoi+0x1a>
   3224d:	8b 45 f8             	mov    -0x8(%ebp),%eax
   32250:	83 c4 10             	add    $0x10,%esp
   32253:	5b                   	pop    %ebx
   32254:	5d                   	pop    %ebp
   32255:	c3                   	ret    

00032256 <itoa>:
   32256:	55                   	push   %ebp
   32257:	89 e5                	mov    %esp,%ebp
   32259:	83 ec 10             	sub    $0x10,%esp
   3225c:	e8 ea 0f 00 00       	call   3324b <__x86.get_pc_thunk.ax>
   32261:	05 f3 19 00 00       	add    $0x19f3,%eax
   32266:	c7 45 fc 00 00 00 00 	movl   $0x0,-0x4(%ebp)
   3226d:	c6 45 fb 00          	movb   $0x0,-0x5(%ebp)
   32271:	83 7d 0c 00          	cmpl   $0x0,0xc(%ebp)
   32275:	75 6a                	jne    322e1 <itoa+0x8b>
   32277:	8b 45 fc             	mov    -0x4(%ebp),%eax
   3227a:	8d 50 01             	lea    0x1(%eax),%edx
   3227d:	89 55 fc             	mov    %edx,-0x4(%ebp)
   32280:	8b 55 08             	mov    0x8(%ebp),%edx
   32283:	01 d0                	add    %edx,%eax
   32285:	c6 00 30             	movb   $0x30,(%eax)
   32288:	8b 55 08             	mov    0x8(%ebp),%edx
   3228b:	8b 45 fc             	mov    -0x4(%ebp),%eax
   3228e:	01 d0                	add    %edx,%eax
   32290:	c6 00 00             	movb   $0x0,(%eax)
   32293:	8b 45 08             	mov    0x8(%ebp),%eax
   32296:	e9 80 00 00 00       	jmp    3231b <itoa+0xc5>
   3229b:	8b 45 0c             	mov    0xc(%ebp),%eax
   3229e:	ba 00 00 00 00       	mov    $0x0,%edx
   322a3:	f7 75 10             	divl   0x10(%ebp)
   322a6:	89 d0                	mov    %edx,%eax
   322a8:	89 45 f4             	mov    %eax,-0xc(%ebp)
   322ab:	83 7d f4 09          	cmpl   $0x9,-0xc(%ebp)
   322af:	7e 0a                	jle    322bb <itoa+0x65>
   322b1:	8b 45 f4             	mov    -0xc(%ebp),%eax
   322b4:	83 c0 57             	add    $0x57,%eax
   322b7:	89 c1                	mov    %eax,%ecx
   322b9:	eb 08                	jmp    322c3 <itoa+0x6d>
   322bb:	8b 45 f4             	mov    -0xc(%ebp),%eax
   322be:	83 c0 30             	add    $0x30,%eax
   322c1:	89 c1                	mov    %eax,%ecx
   322c3:	8b 45 fc             	mov    -0x4(%ebp),%eax
   322c6:	8d 50 01             	lea    0x1(%eax),%edx
   322c9:	89 55 fc             	mov    %edx,-0x4(%ebp)
   322cc:	8b 55 08             	mov    0x8(%ebp),%edx
   322cf:	01 d0                	add    %edx,%eax
   322d1:	88 08                	mov    %cl,(%eax)
   322d3:	8b 45 0c             	mov    0xc(%ebp),%eax
   322d6:	ba 00 00 00 00       	mov    $0x0,%edx
   322db:	f7 75 10             	divl   0x10(%ebp)
   322de:	89 45 0c             	mov    %eax,0xc(%ebp)
   322e1:	83 7d 0c 00          	cmpl   $0x0,0xc(%ebp)
   322e5:	75 b4                	jne    3229b <itoa+0x45>
   322e7:	80 7d fb 00          	cmpb   $0x0,-0x5(%ebp)
   322eb:	74 11                	je     322fe <itoa+0xa8>
   322ed:	8b 45 fc             	mov    -0x4(%ebp),%eax
   322f0:	8d 50 01             	lea    0x1(%eax),%edx
   322f3:	89 55 fc             	mov    %edx,-0x4(%ebp)
   322f6:	8b 55 08             	mov    0x8(%ebp),%edx
   322f9:	01 d0                	add    %edx,%eax
   322fb:	c6 00 2d             	movb   $0x2d,(%eax)
   322fe:	8b 55 08             	mov    0x8(%ebp),%edx
   32301:	8b 45 fc             	mov    -0x4(%ebp),%eax
   32304:	01 d0                	add    %edx,%eax
   32306:	c6 00 00             	movb   $0x0,(%eax)
   32309:	8b 45 fc             	mov    -0x4(%ebp),%eax
   3230c:	50                   	push   %eax
   3230d:	ff 75 08             	pushl  0x8(%ebp)
   32310:	e8 9b fb ff ff       	call   31eb0 <reverse>
   32315:	83 c4 08             	add    $0x8,%esp
   32318:	8b 45 08             	mov    0x8(%ebp),%eax
   3231b:	c9                   	leave  
   3231c:	c3                   	ret    

0003231d <printk>:
   3231d:	55                   	push   %ebp
   3231e:	89 e5                	mov    %esp,%ebp
   32320:	53                   	push   %ebx
   32321:	83 ec 14             	sub    $0x14,%esp
   32324:	e8 1e 0f 00 00       	call   33247 <__x86.get_pc_thunk.bx>
   32329:	81 c3 2b 19 00 00    	add    $0x192b,%ebx
   3232f:	8d 45 0c             	lea    0xc(%ebp),%eax
   32332:	89 45 f0             	mov    %eax,-0x10(%ebp)
   32335:	8b 45 f0             	mov    -0x10(%ebp),%eax
   32338:	83 ec 04             	sub    $0x4,%esp
   3233b:	50                   	push   %eax
   3233c:	ff 75 08             	pushl  0x8(%ebp)
   3233f:	8d 83 2c 40 00 00    	lea    0x402c(%ebx),%eax
   32345:	50                   	push   %eax
   32346:	e8 bf 02 00 00       	call   3260a <vsprintf>
   3234b:	83 c4 10             	add    $0x10,%esp
   3234e:	89 45 f4             	mov    %eax,-0xc(%ebp)
   32351:	8d 93 2c 40 00 00    	lea    0x402c(%ebx),%edx
   32357:	8b 45 f4             	mov    -0xc(%ebp),%eax
   3235a:	01 d0                	add    %edx,%eax
   3235c:	c6 00 00             	movb   $0x0,(%eax)
   3235f:	83 ec 0c             	sub    $0xc,%esp
   32362:	8d 83 2c 40 00 00    	lea    0x402c(%ebx),%eax
   32368:	50                   	push   %eax
   32369:	e8 fd fb ff ff       	call   31f6b <console_write>
   3236e:	83 c4 10             	add    $0x10,%esp
   32371:	90                   	nop
   32372:	8b 5d fc             	mov    -0x4(%ebp),%ebx
   32375:	c9                   	leave  
   32376:	c3                   	ret    

00032377 <printk_color>:
   32377:	55                   	push   %ebp
   32378:	89 e5                	mov    %esp,%ebp
   3237a:	53                   	push   %ebx
   3237b:	83 ec 14             	sub    $0x14,%esp
   3237e:	e8 c4 0e 00 00       	call   33247 <__x86.get_pc_thunk.bx>
   32383:	81 c3 d1 18 00 00    	add    $0x18d1,%ebx
   32389:	8d 45 14             	lea    0x14(%ebp),%eax
   3238c:	89 45 f0             	mov    %eax,-0x10(%ebp)
   3238f:	8b 45 f0             	mov    -0x10(%ebp),%eax
   32392:	83 ec 04             	sub    $0x4,%esp
   32395:	50                   	push   %eax
   32396:	ff 75 10             	pushl  0x10(%ebp)
   32399:	8d 83 2c 44 00 00    	lea    0x442c(%ebx),%eax
   3239f:	50                   	push   %eax
   323a0:	e8 65 02 00 00       	call   3260a <vsprintf>
   323a5:	83 c4 10             	add    $0x10,%esp
   323a8:	89 45 f4             	mov    %eax,-0xc(%ebp)
   323ab:	8d 93 2c 44 00 00    	lea    0x442c(%ebx),%edx
   323b1:	8b 45 f4             	mov    -0xc(%ebp),%eax
   323b4:	01 d0                	add    %edx,%eax
   323b6:	c6 00 00             	movb   $0x0,(%eax)
   323b9:	83 ec 04             	sub    $0x4,%esp
   323bc:	ff 75 0c             	pushl  0xc(%ebp)
   323bf:	ff 75 08             	pushl  0x8(%ebp)
   323c2:	8d 83 2c 44 00 00    	lea    0x442c(%ebx),%eax
   323c8:	50                   	push   %eax
   323c9:	e8 db fb ff ff       	call   31fa9 <console_write_color>
   323ce:	83 c4 10             	add    $0x10,%esp
   323d1:	90                   	nop
   323d2:	8b 5d fc             	mov    -0x4(%ebp),%ebx
   323d5:	c9                   	leave  
   323d6:	c3                   	ret    

000323d7 <number>:
   323d7:	55                   	push   %ebp
   323d8:	89 e5                	mov    %esp,%ebp
   323da:	83 ec 40             	sub    $0x40,%esp
   323dd:	e8 69 0e 00 00       	call   3324b <__x86.get_pc_thunk.ax>
   323e2:	05 72 18 00 00       	add    $0x1872,%eax
   323e7:	8d 90 dc fd ff ff    	lea    -0x224(%eax),%edx
   323ed:	89 55 f8             	mov    %edx,-0x8(%ebp)
   323f0:	8b 55 1c             	mov    0x1c(%ebp),%edx
   323f3:	83 e2 40             	and    $0x40,%edx
   323f6:	85 d2                	test   %edx,%edx
   323f8:	74 09                	je     32403 <number+0x2c>
   323fa:	8d 80 04 fe ff ff    	lea    -0x1fc(%eax),%eax
   32400:	89 45 f8             	mov    %eax,-0x8(%ebp)
   32403:	8b 45 1c             	mov    0x1c(%ebp),%eax
   32406:	83 e0 10             	and    $0x10,%eax
   32409:	85 c0                	test   %eax,%eax
   3240b:	74 04                	je     32411 <number+0x3a>
   3240d:	83 65 1c fe          	andl   $0xfffffffe,0x1c(%ebp)
   32411:	83 7d 10 01          	cmpl   $0x1,0x10(%ebp)
   32415:	7e 06                	jle    3241d <number+0x46>
   32417:	83 7d 10 24          	cmpl   $0x24,0x10(%ebp)
   3241b:	7e 0a                	jle    32427 <number+0x50>
   3241d:	b8 00 00 00 00       	mov    $0x0,%eax
   32422:	e9 e1 01 00 00       	jmp    32608 <number+0x231>
   32427:	8b 45 1c             	mov    0x1c(%ebp),%eax
   3242a:	83 e0 01             	and    $0x1,%eax
   3242d:	85 c0                	test   %eax,%eax
   3242f:	74 07                	je     32438 <number+0x61>
   32431:	b8 30 00 00 00       	mov    $0x30,%eax
   32436:	eb 05                	jmp    3243d <number+0x66>
   32438:	b8 20 00 00 00       	mov    $0x20,%eax
   3243d:	88 45 f3             	mov    %al,-0xd(%ebp)
   32440:	8b 45 1c             	mov    0x1c(%ebp),%eax
   32443:	83 e0 02             	and    $0x2,%eax
   32446:	85 c0                	test   %eax,%eax
   32448:	74 0f                	je     32459 <number+0x82>
   3244a:	83 7d 0c 00          	cmpl   $0x0,0xc(%ebp)
   3244e:	79 09                	jns    32459 <number+0x82>
   32450:	c6 45 ff 2d          	movb   $0x2d,-0x1(%ebp)
   32454:	f7 5d 0c             	negl   0xc(%ebp)
   32457:	eb 1d                	jmp    32476 <number+0x9f>
   32459:	8b 45 1c             	mov    0x1c(%ebp),%eax
   3245c:	83 e0 04             	and    $0x4,%eax
   3245f:	85 c0                	test   %eax,%eax
   32461:	75 0b                	jne    3246e <number+0x97>
   32463:	8b 45 1c             	mov    0x1c(%ebp),%eax
   32466:	c1 e0 02             	shl    $0x2,%eax
   32469:	83 e0 20             	and    $0x20,%eax
   3246c:	eb 05                	jmp    32473 <number+0x9c>
   3246e:	b8 2b 00 00 00       	mov    $0x2b,%eax
   32473:	88 45 ff             	mov    %al,-0x1(%ebp)
   32476:	80 7d ff 00          	cmpb   $0x0,-0x1(%ebp)
   3247a:	74 04                	je     32480 <number+0xa9>
   3247c:	83 6d 14 01          	subl   $0x1,0x14(%ebp)
   32480:	8b 45 1c             	mov    0x1c(%ebp),%eax
   32483:	83 e0 20             	and    $0x20,%eax
   32486:	85 c0                	test   %eax,%eax
   32488:	74 16                	je     324a0 <number+0xc9>
   3248a:	83 7d 10 10          	cmpl   $0x10,0x10(%ebp)
   3248e:	75 06                	jne    32496 <number+0xbf>
   32490:	83 6d 14 02          	subl   $0x2,0x14(%ebp)
   32494:	eb 0a                	jmp    324a0 <number+0xc9>
   32496:	83 7d 10 08          	cmpl   $0x8,0x10(%ebp)
   3249a:	75 04                	jne    324a0 <number+0xc9>
   3249c:	83 6d 14 01          	subl   $0x1,0x14(%ebp)
   324a0:	c7 45 f4 00 00 00 00 	movl   $0x0,-0xc(%ebp)
   324a7:	83 7d 0c 00          	cmpl   $0x0,0xc(%ebp)
   324ab:	75 3e                	jne    324eb <number+0x114>
   324ad:	8b 45 f4             	mov    -0xc(%ebp),%eax
   324b0:	8d 50 01             	lea    0x1(%eax),%edx
   324b3:	89 55 f4             	mov    %edx,-0xc(%ebp)
   324b6:	c6 44 05 c8 30       	movb   $0x30,-0x38(%ebp,%eax,1)
   324bb:	eb 34                	jmp    324f1 <number+0x11a>
   324bd:	8b 45 0c             	mov    0xc(%ebp),%eax
   324c0:	ba 00 00 00 00       	mov    $0x0,%edx
   324c5:	8b 4d 10             	mov    0x10(%ebp),%ecx
   324c8:	f7 f1                	div    %ecx
   324ca:	89 45 0c             	mov    %eax,0xc(%ebp)
   324cd:	89 55 ec             	mov    %edx,-0x14(%ebp)
   324d0:	8b 45 ec             	mov    -0x14(%ebp),%eax
   324d3:	89 c2                	mov    %eax,%edx
   324d5:	8b 45 f8             	mov    -0x8(%ebp),%eax
   324d8:	8d 0c 02             	lea    (%edx,%eax,1),%ecx
   324db:	8b 45 f4             	mov    -0xc(%ebp),%eax
   324de:	8d 50 01             	lea    0x1(%eax),%edx
   324e1:	89 55 f4             	mov    %edx,-0xc(%ebp)
   324e4:	0f b6 11             	movzbl (%ecx),%edx
   324e7:	88 54 05 c8          	mov    %dl,-0x38(%ebp,%eax,1)
   324eb:	83 7d 0c 00          	cmpl   $0x0,0xc(%ebp)
   324ef:	75 cc                	jne    324bd <number+0xe6>
   324f1:	8b 45 f4             	mov    -0xc(%ebp),%eax
   324f4:	3b 45 18             	cmp    0x18(%ebp),%eax
   324f7:	7e 06                	jle    324ff <number+0x128>
   324f9:	8b 45 f4             	mov    -0xc(%ebp),%eax
   324fc:	89 45 18             	mov    %eax,0x18(%ebp)
   324ff:	8b 45 18             	mov    0x18(%ebp),%eax
   32502:	29 45 14             	sub    %eax,0x14(%ebp)
   32505:	8b 45 1c             	mov    0x1c(%ebp),%eax
   32508:	83 e0 11             	and    $0x11,%eax
   3250b:	85 c0                	test   %eax,%eax
   3250d:	75 1b                	jne    3252a <number+0x153>
   3250f:	eb 0c                	jmp    3251d <number+0x146>
   32511:	8b 45 08             	mov    0x8(%ebp),%eax
   32514:	8d 50 01             	lea    0x1(%eax),%edx
   32517:	89 55 08             	mov    %edx,0x8(%ebp)
   3251a:	c6 00 20             	movb   $0x20,(%eax)
   3251d:	8b 45 14             	mov    0x14(%ebp),%eax
   32520:	8d 50 ff             	lea    -0x1(%eax),%edx
   32523:	89 55 14             	mov    %edx,0x14(%ebp)
   32526:	85 c0                	test   %eax,%eax
   32528:	7f e7                	jg     32511 <number+0x13a>
   3252a:	80 7d ff 00          	cmpb   $0x0,-0x1(%ebp)
   3252e:	74 0f                	je     3253f <number+0x168>
   32530:	8b 45 08             	mov    0x8(%ebp),%eax
   32533:	8d 50 01             	lea    0x1(%eax),%edx
   32536:	89 55 08             	mov    %edx,0x8(%ebp)
   32539:	0f b6 55 ff          	movzbl -0x1(%ebp),%edx
   3253d:	88 10                	mov    %dl,(%eax)
   3253f:	8b 45 1c             	mov    0x1c(%ebp),%eax
   32542:	83 e0 20             	and    $0x20,%eax
   32545:	85 c0                	test   %eax,%eax
   32547:	74 38                	je     32581 <number+0x1aa>
   32549:	83 7d 10 08          	cmpl   $0x8,0x10(%ebp)
   3254d:	75 0e                	jne    3255d <number+0x186>
   3254f:	8b 45 08             	mov    0x8(%ebp),%eax
   32552:	8d 50 01             	lea    0x1(%eax),%edx
   32555:	89 55 08             	mov    %edx,0x8(%ebp)
   32558:	c6 00 30             	movb   $0x30,(%eax)
   3255b:	eb 24                	jmp    32581 <number+0x1aa>
   3255d:	83 7d 10 10          	cmpl   $0x10,0x10(%ebp)
   32561:	75 1e                	jne    32581 <number+0x1aa>
   32563:	8b 45 08             	mov    0x8(%ebp),%eax
   32566:	8d 50 01             	lea    0x1(%eax),%edx
   32569:	89 55 08             	mov    %edx,0x8(%ebp)
   3256c:	c6 00 30             	movb   $0x30,(%eax)
   3256f:	8b 45 08             	mov    0x8(%ebp),%eax
   32572:	8d 50 01             	lea    0x1(%eax),%edx
   32575:	89 55 08             	mov    %edx,0x8(%ebp)
   32578:	8b 55 f8             	mov    -0x8(%ebp),%edx
   3257b:	0f b6 52 21          	movzbl 0x21(%edx),%edx
   3257f:	88 10                	mov    %dl,(%eax)
   32581:	8b 45 1c             	mov    0x1c(%ebp),%eax
   32584:	83 e0 10             	and    $0x10,%eax
   32587:	85 c0                	test   %eax,%eax
   32589:	75 2c                	jne    325b7 <number+0x1e0>
   3258b:	eb 0f                	jmp    3259c <number+0x1c5>
   3258d:	8b 45 08             	mov    0x8(%ebp),%eax
   32590:	8d 50 01             	lea    0x1(%eax),%edx
   32593:	89 55 08             	mov    %edx,0x8(%ebp)
   32596:	0f b6 55 f3          	movzbl -0xd(%ebp),%edx
   3259a:	88 10                	mov    %dl,(%eax)
   3259c:	8b 45 14             	mov    0x14(%ebp),%eax
   3259f:	8d 50 ff             	lea    -0x1(%eax),%edx
   325a2:	89 55 14             	mov    %edx,0x14(%ebp)
   325a5:	85 c0                	test   %eax,%eax
   325a7:	7f e4                	jg     3258d <number+0x1b6>
   325a9:	eb 0c                	jmp    325b7 <number+0x1e0>
   325ab:	8b 45 08             	mov    0x8(%ebp),%eax
   325ae:	8d 50 01             	lea    0x1(%eax),%edx
   325b1:	89 55 08             	mov    %edx,0x8(%ebp)
   325b4:	c6 00 30             	movb   $0x30,(%eax)
   325b7:	8b 45 18             	mov    0x18(%ebp),%eax
   325ba:	8d 50 ff             	lea    -0x1(%eax),%edx
   325bd:	89 55 18             	mov    %edx,0x18(%ebp)
   325c0:	39 45 f4             	cmp    %eax,-0xc(%ebp)
   325c3:	7c e6                	jl     325ab <number+0x1d4>
   325c5:	eb 16                	jmp    325dd <number+0x206>
   325c7:	8b 45 08             	mov    0x8(%ebp),%eax
   325ca:	8d 50 01             	lea    0x1(%eax),%edx
   325cd:	89 55 08             	mov    %edx,0x8(%ebp)
   325d0:	8d 4d c8             	lea    -0x38(%ebp),%ecx
   325d3:	8b 55 f4             	mov    -0xc(%ebp),%edx
   325d6:	01 ca                	add    %ecx,%edx
   325d8:	0f b6 12             	movzbl (%edx),%edx
   325db:	88 10                	mov    %dl,(%eax)
   325dd:	8b 45 f4             	mov    -0xc(%ebp),%eax
   325e0:	8d 50 ff             	lea    -0x1(%eax),%edx
   325e3:	89 55 f4             	mov    %edx,-0xc(%ebp)
   325e6:	85 c0                	test   %eax,%eax
   325e8:	7f dd                	jg     325c7 <number+0x1f0>
   325ea:	eb 0c                	jmp    325f8 <number+0x221>
   325ec:	8b 45 08             	mov    0x8(%ebp),%eax
   325ef:	8d 50 01             	lea    0x1(%eax),%edx
   325f2:	89 55 08             	mov    %edx,0x8(%ebp)
   325f5:	c6 00 20             	movb   $0x20,(%eax)
   325f8:	8b 45 14             	mov    0x14(%ebp),%eax
   325fb:	8d 50 ff             	lea    -0x1(%eax),%edx
   325fe:	89 55 14             	mov    %edx,0x14(%ebp)
   32601:	85 c0                	test   %eax,%eax
   32603:	7f e7                	jg     325ec <number+0x215>
   32605:	8b 45 08             	mov    0x8(%ebp),%eax
   32608:	c9                   	leave  
   32609:	c3                   	ret    

0003260a <vsprintf>:
   3260a:	55                   	push   %ebp
   3260b:	89 e5                	mov    %esp,%ebp
   3260d:	53                   	push   %ebx
   3260e:	83 ec 24             	sub    $0x24,%esp
   32611:	e8 31 0c 00 00       	call   33247 <__x86.get_pc_thunk.bx>
   32616:	81 c3 3e 16 00 00    	add    $0x163e,%ebx
   3261c:	8b 45 08             	mov    0x8(%ebp),%eax
   3261f:	89 45 ec             	mov    %eax,-0x14(%ebp)
   32622:	e9 ce 03 00 00       	jmp    329f5 <.L101+0x46>
   32627:	8b 45 0c             	mov    0xc(%ebp),%eax
   3262a:	0f b6 00             	movzbl (%eax),%eax
   3262d:	3c 25                	cmp    $0x25,%al
   3262f:	74 16                	je     32647 <vsprintf+0x3d>
   32631:	8b 55 0c             	mov    0xc(%ebp),%edx
   32634:	8b 45 ec             	mov    -0x14(%ebp),%eax
   32637:	8d 48 01             	lea    0x1(%eax),%ecx
   3263a:	89 4d ec             	mov    %ecx,-0x14(%ebp)
   3263d:	0f b6 12             	movzbl (%edx),%edx
   32640:	88 10                	mov    %dl,(%eax)
   32642:	e9 a5 03 00 00       	jmp    329ec <.L101+0x3d>
   32647:	c7 45 e4 00 00 00 00 	movl   $0x0,-0x1c(%ebp)
   3264e:	8b 45 0c             	mov    0xc(%ebp),%eax
   32651:	83 c0 01             	add    $0x1,%eax
   32654:	89 45 0c             	mov    %eax,0xc(%ebp)
   32657:	8b 45 0c             	mov    0xc(%ebp),%eax
   3265a:	0f b6 00             	movzbl (%eax),%eax
   3265d:	0f be c0             	movsbl %al,%eax
   32660:	83 e8 20             	sub    $0x20,%eax
   32663:	83 f8 10             	cmp    $0x10,%eax
   32666:	77 2c                	ja     32694 <.L87>
   32668:	c1 e0 02             	shl    $0x2,%eax
   3266b:	8b 84 18 2c fe ff ff 	mov    -0x1d4(%eax,%ebx,1),%eax
   32672:	01 d8                	add    %ebx,%eax
   32674:	ff e0                	jmp    *%eax

00032676 <.L92>:
   32676:	83 4d e4 10          	orl    $0x10,-0x1c(%ebp)
   3267a:	eb d2                	jmp    3264e <vsprintf+0x44>

0003267c <.L91>:
   3267c:	83 4d e4 04          	orl    $0x4,-0x1c(%ebp)
   32680:	eb cc                	jmp    3264e <vsprintf+0x44>

00032682 <.L88>:
   32682:	83 4d e4 08          	orl    $0x8,-0x1c(%ebp)
   32686:	eb c6                	jmp    3264e <vsprintf+0x44>

00032688 <.L90>:
   32688:	83 4d e4 20          	orl    $0x20,-0x1c(%ebp)
   3268c:	eb c0                	jmp    3264e <vsprintf+0x44>

0003268e <.L93>:
   3268e:	83 4d e4 01          	orl    $0x1,-0x1c(%ebp)
   32692:	eb ba                	jmp    3264e <vsprintf+0x44>

00032694 <.L87>:
   32694:	c7 45 e0 ff ff ff ff 	movl   $0xffffffff,-0x20(%ebp)
   3269b:	8b 45 0c             	mov    0xc(%ebp),%eax
   3269e:	0f b6 00             	movzbl (%eax),%eax
   326a1:	3c 2f                	cmp    $0x2f,%al
   326a3:	7e 1b                	jle    326c0 <.L87+0x2c>
   326a5:	8b 45 0c             	mov    0xc(%ebp),%eax
   326a8:	0f b6 00             	movzbl (%eax),%eax
   326ab:	3c 39                	cmp    $0x39,%al
   326ad:	7f 11                	jg     326c0 <.L87+0x2c>
   326af:	8d 45 0c             	lea    0xc(%ebp),%eax
   326b2:	50                   	push   %eax
   326b3:	e8 3a fb ff ff       	call   321f2 <skip_atoi>
   326b8:	83 c4 04             	add    $0x4,%esp
   326bb:	89 45 e0             	mov    %eax,-0x20(%ebp)
   326be:	eb 25                	jmp    326e5 <.L87+0x51>
   326c0:	8b 45 0c             	mov    0xc(%ebp),%eax
   326c3:	0f b6 00             	movzbl (%eax),%eax
   326c6:	3c 2a                	cmp    $0x2a,%al
   326c8:	75 1b                	jne    326e5 <.L87+0x51>
   326ca:	8b 45 10             	mov    0x10(%ebp),%eax
   326cd:	8d 50 04             	lea    0x4(%eax),%edx
   326d0:	89 55 10             	mov    %edx,0x10(%ebp)
   326d3:	8b 00                	mov    (%eax),%eax
   326d5:	89 45 e0             	mov    %eax,-0x20(%ebp)
   326d8:	83 7d e0 00          	cmpl   $0x0,-0x20(%ebp)
   326dc:	79 07                	jns    326e5 <.L87+0x51>
   326de:	f7 5d e0             	negl   -0x20(%ebp)
   326e1:	83 4d e4 10          	orl    $0x10,-0x1c(%ebp)
   326e5:	c7 45 dc ff ff ff ff 	movl   $0xffffffff,-0x24(%ebp)
   326ec:	8b 45 0c             	mov    0xc(%ebp),%eax
   326ef:	0f b6 00             	movzbl (%eax),%eax
   326f2:	3c 2e                	cmp    $0x2e,%al
   326f4:	75 53                	jne    32749 <.L87+0xb5>
   326f6:	8b 45 0c             	mov    0xc(%ebp),%eax
   326f9:	83 c0 01             	add    $0x1,%eax
   326fc:	89 45 0c             	mov    %eax,0xc(%ebp)
   326ff:	8b 45 0c             	mov    0xc(%ebp),%eax
   32702:	0f b6 00             	movzbl (%eax),%eax
   32705:	3c 2f                	cmp    $0x2f,%al
   32707:	7e 1b                	jle    32724 <.L87+0x90>
   32709:	8b 45 0c             	mov    0xc(%ebp),%eax
   3270c:	0f b6 00             	movzbl (%eax),%eax
   3270f:	3c 39                	cmp    $0x39,%al
   32711:	7f 11                	jg     32724 <.L87+0x90>
   32713:	8d 45 0c             	lea    0xc(%ebp),%eax
   32716:	50                   	push   %eax
   32717:	e8 d6 fa ff ff       	call   321f2 <skip_atoi>
   3271c:	83 c4 04             	add    $0x4,%esp
   3271f:	89 45 dc             	mov    %eax,-0x24(%ebp)
   32722:	eb 18                	jmp    3273c <.L87+0xa8>
   32724:	8b 45 0c             	mov    0xc(%ebp),%eax
   32727:	0f b6 00             	movzbl (%eax),%eax
   3272a:	3c 2a                	cmp    $0x2a,%al
   3272c:	75 0e                	jne    3273c <.L87+0xa8>
   3272e:	8b 45 10             	mov    0x10(%ebp),%eax
   32731:	8d 50 04             	lea    0x4(%eax),%edx
   32734:	89 55 10             	mov    %edx,0x10(%ebp)
   32737:	8b 00                	mov    (%eax),%eax
   32739:	89 45 dc             	mov    %eax,-0x24(%ebp)
   3273c:	83 7d dc 00          	cmpl   $0x0,-0x24(%ebp)
   32740:	79 07                	jns    32749 <.L87+0xb5>
   32742:	c7 45 dc 00 00 00 00 	movl   $0x0,-0x24(%ebp)
   32749:	8b 45 0c             	mov    0xc(%ebp),%eax
   3274c:	0f b6 00             	movzbl (%eax),%eax
   3274f:	3c 68                	cmp    $0x68,%al
   32751:	74 14                	je     32767 <.L87+0xd3>
   32753:	8b 45 0c             	mov    0xc(%ebp),%eax
   32756:	0f b6 00             	movzbl (%eax),%eax
   32759:	3c 6c                	cmp    $0x6c,%al
   3275b:	74 0a                	je     32767 <.L87+0xd3>
   3275d:	8b 45 0c             	mov    0xc(%ebp),%eax
   32760:	0f b6 00             	movzbl (%eax),%eax
   32763:	3c 4c                	cmp    $0x4c,%al
   32765:	75 09                	jne    32770 <.L87+0xdc>
   32767:	8b 45 0c             	mov    0xc(%ebp),%eax
   3276a:	83 c0 01             	add    $0x1,%eax
   3276d:	89 45 0c             	mov    %eax,0xc(%ebp)
   32770:	8b 45 0c             	mov    0xc(%ebp),%eax
   32773:	0f b6 00             	movzbl (%eax),%eax
   32776:	0f be c0             	movsbl %al,%eax
   32779:	83 e8 58             	sub    $0x58,%eax
   3277c:	83 f8 20             	cmp    $0x20,%eax
   3277f:	0f 87 2a 02 00 00    	ja     329af <.L101>
   32785:	c1 e0 02             	shl    $0x2,%eax
   32788:	8b 84 18 70 fe ff ff 	mov    -0x190(%eax,%ebx,1),%eax
   3278f:	01 d8                	add    %ebx,%eax
   32791:	ff e0                	jmp    *%eax

00032793 <.L105>:
   32793:	8b 45 e4             	mov    -0x1c(%ebp),%eax
   32796:	83 e0 10             	and    $0x10,%eax
   32799:	85 c0                	test   %eax,%eax
   3279b:	75 18                	jne    327b5 <.L105+0x22>
   3279d:	eb 0c                	jmp    327ab <.L105+0x18>
   3279f:	8b 45 ec             	mov    -0x14(%ebp),%eax
   327a2:	8d 50 01             	lea    0x1(%eax),%edx
   327a5:	89 55 ec             	mov    %edx,-0x14(%ebp)
   327a8:	c6 00 20             	movb   $0x20,(%eax)
   327ab:	83 6d e0 01          	subl   $0x1,-0x20(%ebp)
   327af:	83 7d e0 00          	cmpl   $0x0,-0x20(%ebp)
   327b3:	7f ea                	jg     3279f <.L105+0xc>
   327b5:	8b 45 10             	mov    0x10(%ebp),%eax
   327b8:	8d 50 04             	lea    0x4(%eax),%edx
   327bb:	89 55 10             	mov    %edx,0x10(%ebp)
   327be:	8b 08                	mov    (%eax),%ecx
   327c0:	8b 45 ec             	mov    -0x14(%ebp),%eax
   327c3:	8d 50 01             	lea    0x1(%eax),%edx
   327c6:	89 55 ec             	mov    %edx,-0x14(%ebp)
   327c9:	89 ca                	mov    %ecx,%edx
   327cb:	88 10                	mov    %dl,(%eax)
   327cd:	eb 0c                	jmp    327db <.L105+0x48>
   327cf:	8b 45 ec             	mov    -0x14(%ebp),%eax
   327d2:	8d 50 01             	lea    0x1(%eax),%edx
   327d5:	89 55 ec             	mov    %edx,-0x14(%ebp)
   327d8:	c6 00 20             	movb   $0x20,(%eax)
   327db:	83 6d e0 01          	subl   $0x1,-0x20(%ebp)
   327df:	83 7d e0 00          	cmpl   $0x0,-0x20(%ebp)
   327e3:	7f ea                	jg     327cf <.L105+0x3c>
   327e5:	e9 02 02 00 00       	jmp    329ec <.L101+0x3d>

000327ea <.L110>:
   327ea:	8b 45 10             	mov    0x10(%ebp),%eax
   327ed:	8d 50 04             	lea    0x4(%eax),%edx
   327f0:	89 55 10             	mov    %edx,0x10(%ebp)
   327f3:	8b 00                	mov    (%eax),%eax
   327f5:	89 45 e8             	mov    %eax,-0x18(%ebp)
   327f8:	83 ec 0c             	sub    $0xc,%esp
   327fb:	ff 75 e8             	pushl  -0x18(%ebp)
   327fe:	e8 22 08 00 00       	call   33025 <strlen>
   32803:	83 c4 10             	add    $0x10,%esp
   32806:	0f b7 c0             	movzwl %ax,%eax
   32809:	89 45 f4             	mov    %eax,-0xc(%ebp)
   3280c:	83 7d dc 00          	cmpl   $0x0,-0x24(%ebp)
   32810:	79 08                	jns    3281a <.L110+0x30>
   32812:	8b 45 f4             	mov    -0xc(%ebp),%eax
   32815:	89 45 dc             	mov    %eax,-0x24(%ebp)
   32818:	eb 0e                	jmp    32828 <.L110+0x3e>
   3281a:	8b 45 f4             	mov    -0xc(%ebp),%eax
   3281d:	3b 45 dc             	cmp    -0x24(%ebp),%eax
   32820:	7e 06                	jle    32828 <.L110+0x3e>
   32822:	8b 45 dc             	mov    -0x24(%ebp),%eax
   32825:	89 45 f4             	mov    %eax,-0xc(%ebp)
   32828:	8b 45 e4             	mov    -0x1c(%ebp),%eax
   3282b:	83 e0 10             	and    $0x10,%eax
   3282e:	85 c0                	test   %eax,%eax
   32830:	75 1c                	jne    3284e <.L110+0x64>
   32832:	eb 0c                	jmp    32840 <.L110+0x56>
   32834:	8b 45 ec             	mov    -0x14(%ebp),%eax
   32837:	8d 50 01             	lea    0x1(%eax),%edx
   3283a:	89 55 ec             	mov    %edx,-0x14(%ebp)
   3283d:	c6 00 20             	movb   $0x20,(%eax)
   32840:	8b 45 e0             	mov    -0x20(%ebp),%eax
   32843:	8d 50 ff             	lea    -0x1(%eax),%edx
   32846:	89 55 e0             	mov    %edx,-0x20(%ebp)
   32849:	39 45 f4             	cmp    %eax,-0xc(%ebp)
   3284c:	7c e6                	jl     32834 <.L110+0x4a>
   3284e:	c7 45 f0 00 00 00 00 	movl   $0x0,-0x10(%ebp)
   32855:	eb 1b                	jmp    32872 <.L110+0x88>
   32857:	8b 55 e8             	mov    -0x18(%ebp),%edx
   3285a:	8d 42 01             	lea    0x1(%edx),%eax
   3285d:	89 45 e8             	mov    %eax,-0x18(%ebp)
   32860:	8b 45 ec             	mov    -0x14(%ebp),%eax
   32863:	8d 48 01             	lea    0x1(%eax),%ecx
   32866:	89 4d ec             	mov    %ecx,-0x14(%ebp)
   32869:	0f b6 12             	movzbl (%edx),%edx
   3286c:	88 10                	mov    %dl,(%eax)
   3286e:	83 45 f0 01          	addl   $0x1,-0x10(%ebp)
   32872:	8b 45 f0             	mov    -0x10(%ebp),%eax
   32875:	3b 45 f4             	cmp    -0xc(%ebp),%eax
   32878:	7c dd                	jl     32857 <.L110+0x6d>
   3287a:	eb 0c                	jmp    32888 <.L110+0x9e>
   3287c:	8b 45 ec             	mov    -0x14(%ebp),%eax
   3287f:	8d 50 01             	lea    0x1(%eax),%edx
   32882:	89 55 ec             	mov    %edx,-0x14(%ebp)
   32885:	c6 00 20             	movb   $0x20,(%eax)
   32888:	8b 45 e0             	mov    -0x20(%ebp),%eax
   3288b:	8d 50 ff             	lea    -0x1(%eax),%edx
   3288e:	89 55 e0             	mov    %edx,-0x20(%ebp)
   32891:	39 45 f4             	cmp    %eax,-0xc(%ebp)
   32894:	7c e6                	jl     3287c <.L110+0x92>
   32896:	e9 51 01 00 00       	jmp    329ec <.L101+0x3d>

0003289b <.L108>:
   3289b:	8b 45 10             	mov    0x10(%ebp),%eax
   3289e:	8d 50 04             	lea    0x4(%eax),%edx
   328a1:	89 55 10             	mov    %edx,0x10(%ebp)
   328a4:	8b 00                	mov    (%eax),%eax
   328a6:	83 ec 08             	sub    $0x8,%esp
   328a9:	ff 75 e4             	pushl  -0x1c(%ebp)
   328ac:	ff 75 dc             	pushl  -0x24(%ebp)
   328af:	ff 75 e0             	pushl  -0x20(%ebp)
   328b2:	6a 08                	push   $0x8
   328b4:	50                   	push   %eax
   328b5:	ff 75 ec             	pushl  -0x14(%ebp)
   328b8:	e8 1a fb ff ff       	call   323d7 <number>
   328bd:	83 c4 20             	add    $0x20,%esp
   328c0:	89 45 ec             	mov    %eax,-0x14(%ebp)
   328c3:	e9 24 01 00 00       	jmp    329ec <.L101+0x3d>

000328c8 <.L109>:
   328c8:	83 7d e0 ff          	cmpl   $0xffffffff,-0x20(%ebp)
   328cc:	75 0b                	jne    328d9 <.L109+0x11>
   328ce:	c7 45 e0 08 00 00 00 	movl   $0x8,-0x20(%ebp)
   328d5:	83 4d e4 01          	orl    $0x1,-0x1c(%ebp)
   328d9:	8b 45 10             	mov    0x10(%ebp),%eax
   328dc:	8d 50 04             	lea    0x4(%eax),%edx
   328df:	89 55 10             	mov    %edx,0x10(%ebp)
   328e2:	8b 00                	mov    (%eax),%eax
   328e4:	83 ec 08             	sub    $0x8,%esp
   328e7:	ff 75 e4             	pushl  -0x1c(%ebp)
   328ea:	ff 75 dc             	pushl  -0x24(%ebp)
   328ed:	ff 75 e0             	pushl  -0x20(%ebp)
   328f0:	6a 10                	push   $0x10
   328f2:	50                   	push   %eax
   328f3:	ff 75 ec             	pushl  -0x14(%ebp)
   328f6:	e8 dc fa ff ff       	call   323d7 <number>
   328fb:	83 c4 20             	add    $0x20,%esp
   328fe:	89 45 ec             	mov    %eax,-0x14(%ebp)
   32901:	e9 e6 00 00 00       	jmp    329ec <.L101+0x3d>

00032906 <.L112>:
   32906:	83 4d e4 40          	orl    $0x40,-0x1c(%ebp)

0003290a <.L102>:
   3290a:	8b 45 10             	mov    0x10(%ebp),%eax
   3290d:	8d 50 04             	lea    0x4(%eax),%edx
   32910:	89 55 10             	mov    %edx,0x10(%ebp)
   32913:	8b 00                	mov    (%eax),%eax
   32915:	83 ec 08             	sub    $0x8,%esp
   32918:	ff 75 e4             	pushl  -0x1c(%ebp)
   3291b:	ff 75 dc             	pushl  -0x24(%ebp)
   3291e:	ff 75 e0             	pushl  -0x20(%ebp)
   32921:	6a 10                	push   $0x10
   32923:	50                   	push   %eax
   32924:	ff 75 ec             	pushl  -0x14(%ebp)
   32927:	e8 ab fa ff ff       	call   323d7 <number>
   3292c:	83 c4 20             	add    $0x20,%esp
   3292f:	89 45 ec             	mov    %eax,-0x14(%ebp)
   32932:	e9 b5 00 00 00       	jmp    329ec <.L101+0x3d>

00032937 <.L106>:
   32937:	83 4d e4 02          	orl    $0x2,-0x1c(%ebp)

0003293b <.L111>:
   3293b:	8b 45 10             	mov    0x10(%ebp),%eax
   3293e:	8d 50 04             	lea    0x4(%eax),%edx
   32941:	89 55 10             	mov    %edx,0x10(%ebp)
   32944:	8b 00                	mov    (%eax),%eax
   32946:	83 ec 08             	sub    $0x8,%esp
   32949:	ff 75 e4             	pushl  -0x1c(%ebp)
   3294c:	ff 75 dc             	pushl  -0x24(%ebp)
   3294f:	ff 75 e0             	pushl  -0x20(%ebp)
   32952:	6a 0a                	push   $0xa
   32954:	50                   	push   %eax
   32955:	ff 75 ec             	pushl  -0x14(%ebp)
   32958:	e8 7a fa ff ff       	call   323d7 <number>
   3295d:	83 c4 20             	add    $0x20,%esp
   32960:	89 45 ec             	mov    %eax,-0x14(%ebp)
   32963:	e9 84 00 00 00       	jmp    329ec <.L101+0x3d>

00032968 <.L104>:
   32968:	8b 45 10             	mov    0x10(%ebp),%eax
   3296b:	8d 50 04             	lea    0x4(%eax),%edx
   3296e:	89 55 10             	mov    %edx,0x10(%ebp)
   32971:	8b 00                	mov    (%eax),%eax
   32973:	83 ec 08             	sub    $0x8,%esp
   32976:	ff 75 e4             	pushl  -0x1c(%ebp)
   32979:	ff 75 dc             	pushl  -0x24(%ebp)
   3297c:	ff 75 e0             	pushl  -0x20(%ebp)
   3297f:	6a 02                	push   $0x2
   32981:	50                   	push   %eax
   32982:	ff 75 ec             	pushl  -0x14(%ebp)
   32985:	e8 4d fa ff ff       	call   323d7 <number>
   3298a:	83 c4 20             	add    $0x20,%esp
   3298d:	89 45 ec             	mov    %eax,-0x14(%ebp)
   32990:	eb 5a                	jmp    329ec <.L101+0x3d>

00032992 <.L107>:
   32992:	8b 45 10             	mov    0x10(%ebp),%eax
   32995:	8d 50 04             	lea    0x4(%eax),%edx
   32998:	89 55 10             	mov    %edx,0x10(%ebp)
   3299b:	8b 00                	mov    (%eax),%eax
   3299d:	89 45 d8             	mov    %eax,-0x28(%ebp)
   329a0:	8b 55 ec             	mov    -0x14(%ebp),%edx
   329a3:	8b 45 08             	mov    0x8(%ebp),%eax
   329a6:	29 c2                	sub    %eax,%edx
   329a8:	8b 45 d8             	mov    -0x28(%ebp),%eax
   329ab:	89 10                	mov    %edx,(%eax)
   329ad:	eb 3d                	jmp    329ec <.L101+0x3d>

000329af <.L101>:
   329af:	8b 45 0c             	mov    0xc(%ebp),%eax
   329b2:	0f b6 00             	movzbl (%eax),%eax
   329b5:	3c 25                	cmp    $0x25,%al
   329b7:	74 0c                	je     329c5 <.L101+0x16>
   329b9:	8b 45 ec             	mov    -0x14(%ebp),%eax
   329bc:	8d 50 01             	lea    0x1(%eax),%edx
   329bf:	89 55 ec             	mov    %edx,-0x14(%ebp)
   329c2:	c6 00 25             	movb   $0x25,(%eax)
   329c5:	8b 45 0c             	mov    0xc(%ebp),%eax
   329c8:	0f b6 00             	movzbl (%eax),%eax
   329cb:	84 c0                	test   %al,%al
   329cd:	74 13                	je     329e2 <.L101+0x33>
   329cf:	8b 55 0c             	mov    0xc(%ebp),%edx
   329d2:	8b 45 ec             	mov    -0x14(%ebp),%eax
   329d5:	8d 48 01             	lea    0x1(%eax),%ecx
   329d8:	89 4d ec             	mov    %ecx,-0x14(%ebp)
   329db:	0f b6 12             	movzbl (%edx),%edx
   329de:	88 10                	mov    %dl,(%eax)
   329e0:	eb 09                	jmp    329eb <.L101+0x3c>
   329e2:	8b 45 0c             	mov    0xc(%ebp),%eax
   329e5:	83 e8 01             	sub    $0x1,%eax
   329e8:	89 45 0c             	mov    %eax,0xc(%ebp)
   329eb:	90                   	nop
   329ec:	8b 45 0c             	mov    0xc(%ebp),%eax
   329ef:	83 c0 01             	add    $0x1,%eax
   329f2:	89 45 0c             	mov    %eax,0xc(%ebp)
   329f5:	8b 45 0c             	mov    0xc(%ebp),%eax
   329f8:	0f b6 00             	movzbl (%eax),%eax
   329fb:	84 c0                	test   %al,%al
   329fd:	0f 85 24 fc ff ff    	jne    32627 <vsprintf+0x1d>
   32a03:	8b 45 ec             	mov    -0x14(%ebp),%eax
   32a06:	c6 00 00             	movb   $0x0,(%eax)
   32a09:	8b 55 ec             	mov    -0x14(%ebp),%edx
   32a0c:	8b 45 08             	mov    0x8(%ebp),%eax
   32a0f:	29 c2                	sub    %eax,%edx
   32a11:	89 d0                	mov    %edx,%eax
   32a13:	8b 5d fc             	mov    -0x4(%ebp),%ebx
   32a16:	c9                   	leave  
   32a17:	c3                   	ret    

00032a18 <printk_int>:
   32a18:	55                   	push   %ebp
   32a19:	89 e5                	mov    %esp,%ebp
   32a1b:	83 ec 18             	sub    $0x18,%esp
   32a1e:	e8 28 08 00 00       	call   3324b <__x86.get_pc_thunk.ax>
   32a23:	05 31 12 00 00       	add    $0x1231,%eax
   32a28:	6a 0a                	push   $0xa
   32a2a:	ff 75 08             	pushl  0x8(%ebp)
   32a2d:	8d 45 e8             	lea    -0x18(%ebp),%eax
   32a30:	50                   	push   %eax
   32a31:	e8 20 f8 ff ff       	call   32256 <itoa>
   32a36:	83 c4 0c             	add    $0xc,%esp
   32a39:	83 ec 0c             	sub    $0xc,%esp
   32a3c:	8d 45 e8             	lea    -0x18(%ebp),%eax
   32a3f:	50                   	push   %eax
   32a40:	e8 d8 f8 ff ff       	call   3231d <printk>
   32a45:	83 c4 10             	add    $0x10,%esp
   32a48:	90                   	nop
   32a49:	c9                   	leave  
   32a4a:	c3                   	ret    

00032a4b <printk_hex>:
   32a4b:	55                   	push   %ebp
   32a4c:	89 e5                	mov    %esp,%ebp
   32a4e:	83 ec 18             	sub    $0x18,%esp
   32a51:	e8 f5 07 00 00       	call   3324b <__x86.get_pc_thunk.ax>
   32a56:	05 fe 11 00 00       	add    $0x11fe,%eax
   32a5b:	6a 10                	push   $0x10
   32a5d:	ff 75 08             	pushl  0x8(%ebp)
   32a60:	8d 45 e8             	lea    -0x18(%ebp),%eax
   32a63:	50                   	push   %eax
   32a64:	e8 ed f7 ff ff       	call   32256 <itoa>
   32a69:	83 c4 0c             	add    $0xc,%esp
   32a6c:	83 ec 0c             	sub    $0xc,%esp
   32a6f:	8d 45 e8             	lea    -0x18(%ebp),%eax
   32a72:	50                   	push   %eax
   32a73:	e8 a5 f8 ff ff       	call   3231d <printk>
   32a78:	83 c4 10             	add    $0x10,%esp
   32a7b:	90                   	nop
   32a7c:	c9                   	leave  
   32a7d:	c3                   	ret    

00032a7e <printk_int_colour>:
   32a7e:	55                   	push   %ebp
   32a7f:	89 e5                	mov    %esp,%ebp
   32a81:	83 ec 18             	sub    $0x18,%esp
   32a84:	e8 c2 07 00 00       	call   3324b <__x86.get_pc_thunk.ax>
   32a89:	05 cb 11 00 00       	add    $0x11cb,%eax
   32a8e:	6a 0a                	push   $0xa
   32a90:	ff 75 08             	pushl  0x8(%ebp)
   32a93:	8d 45 e8             	lea    -0x18(%ebp),%eax
   32a96:	50                   	push   %eax
   32a97:	e8 ba f7 ff ff       	call   32256 <itoa>
   32a9c:	83 c4 0c             	add    $0xc,%esp
   32a9f:	83 ec 04             	sub    $0x4,%esp
   32aa2:	8d 45 e8             	lea    -0x18(%ebp),%eax
   32aa5:	50                   	push   %eax
   32aa6:	ff 75 10             	pushl  0x10(%ebp)
   32aa9:	ff 75 0c             	pushl  0xc(%ebp)
   32aac:	e8 c6 f8 ff ff       	call   32377 <printk_color>
   32ab1:	83 c4 10             	add    $0x10,%esp
   32ab4:	90                   	nop
   32ab5:	c9                   	leave  
   32ab6:	c3                   	ret    

00032ab7 <mem_seg_desc_copy>:
   32ab7:	55                   	push   %ebp
   32ab8:	89 e5                	mov    %esp,%ebp
   32aba:	56                   	push   %esi
   32abb:	53                   	push   %ebx
   32abc:	83 ec 10             	sub    $0x10,%esp
   32abf:	e8 87 07 00 00       	call   3324b <__x86.get_pc_thunk.ax>
   32ac4:	05 90 11 00 00       	add    $0x1190,%eax
   32ac9:	c6 45 f7 00          	movb   $0x0,-0x9(%ebp)
   32acd:	e9 18 01 00 00       	jmp    32bea <mem_seg_desc_copy+0x133>
   32ad2:	0f b6 4d f7          	movzbl -0x9(%ebp),%ecx
   32ad6:	89 ca                	mov    %ecx,%edx
   32ad8:	c1 e2 02             	shl    $0x2,%edx
   32adb:	01 ca                	add    %ecx,%edx
   32add:	c1 e2 02             	shl    $0x2,%edx
   32ae0:	89 d1                	mov    %edx,%ecx
   32ae2:	c7 c2 e0 3b 03 00    	mov    $0x33be0,%edx
   32ae8:	8b 12                	mov    (%edx),%edx
   32aea:	01 ca                	add    %ecx,%edx
   32aec:	0f b6 4d f7          	movzbl -0x9(%ebp),%ecx
   32af0:	8b 1a                	mov    (%edx),%ebx
   32af2:	c7 c6 e0 b1 03 00    	mov    $0x3b1e0,%esi
   32af8:	89 ca                	mov    %ecx,%edx
   32afa:	c1 e2 02             	shl    $0x2,%edx
   32afd:	01 ca                	add    %ecx,%edx
   32aff:	c1 e2 02             	shl    $0x2,%edx
   32b02:	01 f2                	add    %esi,%edx
   32b04:	89 1a                	mov    %ebx,(%edx)
   32b06:	0f b6 4d f7          	movzbl -0x9(%ebp),%ecx
   32b0a:	89 ca                	mov    %ecx,%edx
   32b0c:	c1 e2 02             	shl    $0x2,%edx
   32b0f:	01 ca                	add    %ecx,%edx
   32b11:	c1 e2 02             	shl    $0x2,%edx
   32b14:	89 d1                	mov    %edx,%ecx
   32b16:	c7 c2 e0 3b 03 00    	mov    $0x33be0,%edx
   32b1c:	8b 12                	mov    (%edx),%edx
   32b1e:	01 ca                	add    %ecx,%edx
   32b20:	0f b6 4d f7          	movzbl -0x9(%ebp),%ecx
   32b24:	8b 5a 04             	mov    0x4(%edx),%ebx
   32b27:	c7 c6 e0 b1 03 00    	mov    $0x3b1e0,%esi
   32b2d:	89 ca                	mov    %ecx,%edx
   32b2f:	c1 e2 02             	shl    $0x2,%edx
   32b32:	01 ca                	add    %ecx,%edx
   32b34:	c1 e2 02             	shl    $0x2,%edx
   32b37:	01 f2                	add    %esi,%edx
   32b39:	89 5a 04             	mov    %ebx,0x4(%edx)
   32b3c:	0f b6 4d f7          	movzbl -0x9(%ebp),%ecx
   32b40:	89 ca                	mov    %ecx,%edx
   32b42:	c1 e2 02             	shl    $0x2,%edx
   32b45:	01 ca                	add    %ecx,%edx
   32b47:	c1 e2 02             	shl    $0x2,%edx
   32b4a:	89 d1                	mov    %edx,%ecx
   32b4c:	c7 c2 e0 3b 03 00    	mov    $0x33be0,%edx
   32b52:	8b 12                	mov    (%edx),%edx
   32b54:	01 ca                	add    %ecx,%edx
   32b56:	0f b6 4d f7          	movzbl -0x9(%ebp),%ecx
   32b5a:	8b 5a 08             	mov    0x8(%edx),%ebx
   32b5d:	c7 c6 e0 b1 03 00    	mov    $0x3b1e0,%esi
   32b63:	89 ca                	mov    %ecx,%edx
   32b65:	c1 e2 02             	shl    $0x2,%edx
   32b68:	01 ca                	add    %ecx,%edx
   32b6a:	c1 e2 02             	shl    $0x2,%edx
   32b6d:	01 f2                	add    %esi,%edx
   32b6f:	89 5a 08             	mov    %ebx,0x8(%edx)
   32b72:	0f b6 4d f7          	movzbl -0x9(%ebp),%ecx
   32b76:	89 ca                	mov    %ecx,%edx
   32b78:	c1 e2 02             	shl    $0x2,%edx
   32b7b:	01 ca                	add    %ecx,%edx
   32b7d:	c1 e2 02             	shl    $0x2,%edx
   32b80:	89 d1                	mov    %edx,%ecx
   32b82:	c7 c2 e0 3b 03 00    	mov    $0x33be0,%edx
   32b88:	8b 12                	mov    (%edx),%edx
   32b8a:	01 ca                	add    %ecx,%edx
   32b8c:	0f b6 4d f7          	movzbl -0x9(%ebp),%ecx
   32b90:	8b 5a 0c             	mov    0xc(%edx),%ebx
   32b93:	c7 c6 e0 b1 03 00    	mov    $0x3b1e0,%esi
   32b99:	89 ca                	mov    %ecx,%edx
   32b9b:	c1 e2 02             	shl    $0x2,%edx
   32b9e:	01 ca                	add    %ecx,%edx
   32ba0:	c1 e2 02             	shl    $0x2,%edx
   32ba3:	01 f2                	add    %esi,%edx
   32ba5:	89 5a 0c             	mov    %ebx,0xc(%edx)
   32ba8:	0f b6 4d f7          	movzbl -0x9(%ebp),%ecx
   32bac:	89 ca                	mov    %ecx,%edx
   32bae:	c1 e2 02             	shl    $0x2,%edx
   32bb1:	01 ca                	add    %ecx,%edx
   32bb3:	c1 e2 02             	shl    $0x2,%edx
   32bb6:	89 d1                	mov    %edx,%ecx
   32bb8:	c7 c2 e0 3b 03 00    	mov    $0x33be0,%edx
   32bbe:	8b 12                	mov    (%edx),%edx
   32bc0:	01 ca                	add    %ecx,%edx
   32bc2:	0f b6 4d f7          	movzbl -0x9(%ebp),%ecx
   32bc6:	8b 5a 10             	mov    0x10(%edx),%ebx
   32bc9:	c7 c6 e0 b1 03 00    	mov    $0x3b1e0,%esi
   32bcf:	89 ca                	mov    %ecx,%edx
   32bd1:	c1 e2 02             	shl    $0x2,%edx
   32bd4:	01 ca                	add    %ecx,%edx
   32bd6:	c1 e2 02             	shl    $0x2,%edx
   32bd9:	01 f2                	add    %esi,%edx
   32bdb:	83 c2 10             	add    $0x10,%edx
   32bde:	89 1a                	mov    %ebx,(%edx)
   32be0:	0f b6 55 f7          	movzbl -0x9(%ebp),%edx
   32be4:	83 c2 01             	add    $0x1,%edx
   32be7:	88 55 f7             	mov    %dl,-0x9(%ebp)
   32bea:	0f b6 4d f7          	movzbl -0x9(%ebp),%ecx
   32bee:	c7 c2 e4 3b 03 00    	mov    $0x33be4,%edx
   32bf4:	8b 12                	mov    (%edx),%edx
   32bf6:	39 d1                	cmp    %edx,%ecx
   32bf8:	0f 82 d4 fe ff ff    	jb     32ad2 <mem_seg_desc_copy+0x1b>
   32bfe:	90                   	nop
   32bff:	83 c4 10             	add    $0x10,%esp
   32c02:	5b                   	pop    %ebx
   32c03:	5e                   	pop    %esi
   32c04:	5d                   	pop    %ebp
   32c05:	c3                   	ret    

00032c06 <mem_seg_desc_display>:
   32c06:	55                   	push   %ebp
   32c07:	89 e5                	mov    %esp,%ebp
   32c09:	57                   	push   %edi
   32c0a:	56                   	push   %esi
   32c0b:	53                   	push   %ebx
   32c0c:	83 ec 2c             	sub    $0x2c,%esp
   32c0f:	e8 33 06 00 00       	call   33247 <__x86.get_pc_thunk.bx>
   32c14:	81 c3 40 10 00 00    	add    $0x1040,%ebx
   32c1a:	83 ec 04             	sub    $0x4,%esp
   32c1d:	8d 83 f4 fe ff ff    	lea    -0x10c(%ebx),%eax
   32c23:	50                   	push   %eax
   32c24:	6a 02                	push   $0x2
   32c26:	6a 00                	push   $0x0
   32c28:	e8 4a f7 ff ff       	call   32377 <printk_color>
   32c2d:	83 c4 10             	add    $0x10,%esp
   32c30:	c6 45 e7 00          	movb   $0x0,-0x19(%ebp)
   32c34:	e9 aa 00 00 00       	jmp    32ce3 <mem_seg_desc_display+0xdd>
   32c39:	0f b6 55 e7          	movzbl -0x19(%ebp),%edx
   32c3d:	c7 c1 e0 b1 03 00    	mov    $0x3b1e0,%ecx
   32c43:	89 d0                	mov    %edx,%eax
   32c45:	c1 e0 02             	shl    $0x2,%eax
   32c48:	01 d0                	add    %edx,%eax
   32c4a:	c1 e0 02             	shl    $0x2,%eax
   32c4d:	01 c8                	add    %ecx,%eax
   32c4f:	83 c0 10             	add    $0x10,%eax
   32c52:	8b 00                	mov    (%eax),%eax
   32c54:	89 45 d4             	mov    %eax,-0x2c(%ebp)
   32c57:	0f b6 55 e7          	movzbl -0x19(%ebp),%edx
   32c5b:	c7 c1 e0 b1 03 00    	mov    $0x3b1e0,%ecx
   32c61:	89 d0                	mov    %edx,%eax
   32c63:	c1 e0 02             	shl    $0x2,%eax
   32c66:	01 d0                	add    %edx,%eax
   32c68:	c1 e0 02             	shl    $0x2,%eax
   32c6b:	01 c8                	add    %ecx,%eax
   32c6d:	8b 70 08             	mov    0x8(%eax),%esi
   32c70:	89 75 d0             	mov    %esi,-0x30(%ebp)
   32c73:	0f b6 55 e7          	movzbl -0x19(%ebp),%edx
   32c77:	c7 c1 e0 b1 03 00    	mov    $0x3b1e0,%ecx
   32c7d:	89 d0                	mov    %edx,%eax
   32c7f:	c1 e0 02             	shl    $0x2,%eax
   32c82:	01 d0                	add    %edx,%eax
   32c84:	c1 e0 02             	shl    $0x2,%eax
   32c87:	01 c8                	add    %ecx,%eax
   32c89:	8b 78 0c             	mov    0xc(%eax),%edi
   32c8c:	0f b6 55 e7          	movzbl -0x19(%ebp),%edx
   32c90:	c7 c1 e0 b1 03 00    	mov    $0x3b1e0,%ecx
   32c96:	89 d0                	mov    %edx,%eax
   32c98:	c1 e0 02             	shl    $0x2,%eax
   32c9b:	01 d0                	add    %edx,%eax
   32c9d:	c1 e0 02             	shl    $0x2,%eax
   32ca0:	01 c8                	add    %ecx,%eax
   32ca2:	8b 08                	mov    (%eax),%ecx
   32ca4:	0f b6 55 e7          	movzbl -0x19(%ebp),%edx
   32ca8:	c7 c6 e0 b1 03 00    	mov    $0x3b1e0,%esi
   32cae:	89 d0                	mov    %edx,%eax
   32cb0:	c1 e0 02             	shl    $0x2,%eax
   32cb3:	01 d0                	add    %edx,%eax
   32cb5:	c1 e0 02             	shl    $0x2,%eax
   32cb8:	01 f0                	add    %esi,%eax
   32cba:	8b 40 04             	mov    0x4(%eax),%eax
   32cbd:	ff 75 d4             	pushl  -0x2c(%ebp)
   32cc0:	ff 75 d0             	pushl  -0x30(%ebp)
   32cc3:	57                   	push   %edi
   32cc4:	51                   	push   %ecx
   32cc5:	50                   	push   %eax
   32cc6:	8d 83 14 ff ff ff    	lea    -0xec(%ebx),%eax
   32ccc:	50                   	push   %eax
   32ccd:	6a 03                	push   $0x3
   32ccf:	6a 00                	push   $0x0
   32cd1:	e8 a1 f6 ff ff       	call   32377 <printk_color>
   32cd6:	83 c4 20             	add    $0x20,%esp
   32cd9:	0f b6 45 e7          	movzbl -0x19(%ebp),%eax
   32cdd:	83 c0 01             	add    $0x1,%eax
   32ce0:	88 45 e7             	mov    %al,-0x19(%ebp)
   32ce3:	0f b6 55 e7          	movzbl -0x19(%ebp),%edx
   32ce7:	c7 c0 e4 3b 03 00    	mov    $0x33be4,%eax
   32ced:	8b 00                	mov    (%eax),%eax
   32cef:	39 c2                	cmp    %eax,%edx
   32cf1:	0f 82 42 ff ff ff    	jb     32c39 <mem_seg_desc_display+0x33>
   32cf7:	90                   	nop
   32cf8:	8d 65 f4             	lea    -0xc(%ebp),%esp
   32cfb:	5b                   	pop    %ebx
   32cfc:	5e                   	pop    %esi
   32cfd:	5f                   	pop    %edi
   32cfe:	5d                   	pop    %ebp
   32cff:	c3                   	ret    

00032d00 <init_phy_memoey>:
   32d00:	55                   	push   %ebp
   32d01:	89 e5                	mov    %esp,%ebp
   32d03:	53                   	push   %ebx
   32d04:	83 ec 24             	sub    $0x24,%esp
   32d07:	e8 3b 05 00 00       	call   33247 <__x86.get_pc_thunk.bx>
   32d0c:	81 c3 48 0f 00 00    	add    $0xf48,%ebx
   32d12:	c7 45 f0 00 04 03 00 	movl   $0x30400,-0x10(%ebp)
   32d19:	ff 75 f0             	pushl  -0x10(%ebp)
   32d1c:	8d 83 4d ff ff ff    	lea    -0xb3(%ebx),%eax
   32d22:	50                   	push   %eax
   32d23:	6a 04                	push   $0x4
   32d25:	6a 07                	push   $0x7
   32d27:	e8 4b f6 ff ff       	call   32377 <printk_color>
   32d2c:	83 c4 10             	add    $0x10,%esp
   32d2f:	c7 45 ec 00 00 10 00 	movl   $0x100000,-0x14(%ebp)
   32d36:	c7 45 e8 00 00 ef 01 	movl   $0x1ef0000,-0x18(%ebp)
   32d3d:	8b 55 ec             	mov    -0x14(%ebp),%edx
   32d40:	8b 45 e8             	mov    -0x18(%ebp),%eax
   32d43:	01 d0                	add    %edx,%eax
   32d45:	89 45 e4             	mov    %eax,-0x1c(%ebp)
   32d48:	c7 83 30 68 00 00 00 	movl   $0x0,0x6830(%ebx)
   32d4f:	00 00 00 
   32d52:	c7 45 f4 00 00 00 00 	movl   $0x0,-0xc(%ebp)
   32d59:	eb 16                	jmp    32d71 <init_phy_memoey+0x71>
   32d5b:	8b 83 30 68 00 00    	mov    0x6830(%ebx),%eax
   32d61:	83 c0 01             	add    $0x1,%eax
   32d64:	89 83 30 68 00 00    	mov    %eax,0x6830(%ebx)
   32d6a:	81 45 f4 00 10 00 00 	addl   $0x1000,-0xc(%ebp)
   32d71:	8b 45 f4             	mov    -0xc(%ebp),%eax
   32d74:	3b 45 e8             	cmp    -0x18(%ebp),%eax
   32d77:	72 e2                	jb     32d5b <init_phy_memoey+0x5b>
   32d79:	8b 83 30 68 00 00    	mov    0x6830(%ebx),%eax
   32d7f:	50                   	push   %eax
   32d80:	8d 83 6a ff ff ff    	lea    -0x96(%ebx),%eax
   32d86:	50                   	push   %eax
   32d87:	6a 04                	push   $0x4
   32d89:	6a 07                	push   $0x7
   32d8b:	e8 e7 f5 ff ff       	call   32377 <printk_color>
   32d90:	83 c4 10             	add    $0x10,%esp
   32d93:	90                   	nop
   32d94:	8b 5d fc             	mov    -0x4(%ebp),%ebx
   32d97:	c9                   	leave  
   32d98:	c3                   	ret    

00032d99 <outb>:
   32d99:	55                   	push   %ebp
   32d9a:	89 e5                	mov    %esp,%ebp
   32d9c:	83 ec 08             	sub    $0x8,%esp
   32d9f:	e8 a7 04 00 00       	call   3324b <__x86.get_pc_thunk.ax>
   32da4:	05 b0 0e 00 00       	add    $0xeb0,%eax
   32da9:	8b 55 08             	mov    0x8(%ebp),%edx
   32dac:	8b 45 0c             	mov    0xc(%ebp),%eax
   32daf:	66 89 55 fc          	mov    %dx,-0x4(%ebp)
   32db3:	88 45 f8             	mov    %al,-0x8(%ebp)
   32db6:	0f b7 55 fc          	movzwl -0x4(%ebp),%edx
   32dba:	0f b6 45 f8          	movzbl -0x8(%ebp),%eax
   32dbe:	ee                   	out    %al,(%dx)
   32dbf:	90                   	nop
   32dc0:	c9                   	leave  
   32dc1:	c3                   	ret    

00032dc2 <inb>:
   32dc2:	55                   	push   %ebp
   32dc3:	89 e5                	mov    %esp,%ebp
   32dc5:	83 ec 14             	sub    $0x14,%esp
   32dc8:	e8 7e 04 00 00       	call   3324b <__x86.get_pc_thunk.ax>
   32dcd:	05 87 0e 00 00       	add    $0xe87,%eax
   32dd2:	8b 45 08             	mov    0x8(%ebp),%eax
   32dd5:	66 89 45 ec          	mov    %ax,-0x14(%ebp)
   32dd9:	0f b7 45 ec          	movzwl -0x14(%ebp),%eax
   32ddd:	89 c2                	mov    %eax,%edx
   32ddf:	ec                   	in     (%dx),%al
   32de0:	88 45 ff             	mov    %al,-0x1(%ebp)
   32de3:	0f b6 45 ff          	movzbl -0x1(%ebp),%eax
   32de7:	c9                   	leave  
   32de8:	c3                   	ret    

00032de9 <inw>:
   32de9:	55                   	push   %ebp
   32dea:	89 e5                	mov    %esp,%ebp
   32dec:	83 ec 14             	sub    $0x14,%esp
   32def:	e8 57 04 00 00       	call   3324b <__x86.get_pc_thunk.ax>
   32df4:	05 60 0e 00 00       	add    $0xe60,%eax
   32df9:	8b 45 08             	mov    0x8(%ebp),%eax
   32dfc:	66 89 45 ec          	mov    %ax,-0x14(%ebp)
   32e00:	0f b7 45 ec          	movzwl -0x14(%ebp),%eax
   32e04:	89 c2                	mov    %eax,%edx
   32e06:	66 ed                	in     (%dx),%ax
   32e08:	66 89 45 fe          	mov    %ax,-0x2(%ebp)
   32e0c:	0f b7 45 fe          	movzwl -0x2(%ebp),%eax
   32e10:	c9                   	leave  
   32e11:	c3                   	ret    

00032e12 <insl>:
   32e12:	55                   	push   %ebp
   32e13:	89 e5                	mov    %esp,%ebp
   32e15:	57                   	push   %edi
   32e16:	e8 30 04 00 00       	call   3324b <__x86.get_pc_thunk.ax>
   32e1b:	05 39 0e 00 00       	add    $0xe39,%eax
   32e20:	fc                   	cld    
   32e21:	8b 55 08             	mov    0x8(%ebp),%edx
   32e24:	8b 45 0c             	mov    0xc(%ebp),%eax
   32e27:	8b 4d 10             	mov    0x10(%ebp),%ecx
   32e2a:	89 c7                	mov    %eax,%edi
   32e2c:	f2 6d                	repnz insl (%dx),%es:(%edi)
   32e2e:	89 ca                	mov    %ecx,%edx
   32e30:	89 f8                	mov    %edi,%eax
   32e32:	89 45 0c             	mov    %eax,0xc(%ebp)
   32e35:	89 55 10             	mov    %edx,0x10(%ebp)
   32e38:	90                   	nop
   32e39:	5f                   	pop    %edi
   32e3a:	5d                   	pop    %ebp
   32e3b:	c3                   	ret    

00032e3c <outsl>:
   32e3c:	55                   	push   %ebp
   32e3d:	89 e5                	mov    %esp,%ebp
   32e3f:	57                   	push   %edi
   32e40:	e8 06 04 00 00       	call   3324b <__x86.get_pc_thunk.ax>
   32e45:	05 0f 0e 00 00       	add    $0xe0f,%eax
   32e4a:	fc                   	cld    
   32e4b:	8b 55 08             	mov    0x8(%ebp),%edx
   32e4e:	8b 45 0c             	mov    0xc(%ebp),%eax
   32e51:	8b 4d 10             	mov    0x10(%ebp),%ecx
   32e54:	89 c7                	mov    %eax,%edi
   32e56:	f2 6f                	repnz outsl %ds:(%esi),(%dx)
   32e58:	89 ca                	mov    %ecx,%edx
   32e5a:	89 f8                	mov    %edi,%eax
   32e5c:	89 45 0c             	mov    %eax,0xc(%ebp)
   32e5f:	89 55 10             	mov    %edx,0x10(%ebp)
   32e62:	90                   	nop
   32e63:	5f                   	pop    %edi
   32e64:	5d                   	pop    %ebp
   32e65:	c3                   	ret    

00032e66 <enable_int>:
   32e66:	55                   	push   %ebp
   32e67:	89 e5                	mov    %esp,%ebp
   32e69:	e8 dd 03 00 00       	call   3324b <__x86.get_pc_thunk.ax>
   32e6e:	05 e6 0d 00 00       	add    $0xde6,%eax
   32e73:	fb                   	sti    
   32e74:	90                   	nop
   32e75:	5d                   	pop    %ebp
   32e76:	c3                   	ret    

00032e77 <disable_int>:
   32e77:	55                   	push   %ebp
   32e78:	89 e5                	mov    %esp,%ebp
   32e7a:	e8 cc 03 00 00       	call   3324b <__x86.get_pc_thunk.ax>
   32e7f:	05 d5 0d 00 00       	add    $0xdd5,%eax
   32e84:	fa                   	cli    
   32e85:	90                   	nop
   32e86:	5d                   	pop    %ebp
   32e87:	c3                   	ret    

00032e88 <cpu_hlt>:
   32e88:	55                   	push   %ebp
   32e89:	89 e5                	mov    %esp,%ebp
   32e8b:	e8 bb 03 00 00       	call   3324b <__x86.get_pc_thunk.ax>
   32e90:	05 c4 0d 00 00       	add    $0xdc4,%eax
   32e95:	f4                   	hlt    
   32e96:	90                   	nop
   32e97:	5d                   	pop    %ebp
   32e98:	c3                   	ret    

00032e99 <memcpy>:
   32e99:	55                   	push   %ebp
   32e9a:	89 e5                	mov    %esp,%ebp
   32e9c:	e8 aa 03 00 00       	call   3324b <__x86.get_pc_thunk.ax>
   32ea1:	05 b3 0d 00 00       	add    $0xdb3,%eax
   32ea6:	eb 1b                	jmp    32ec3 <memcpy+0x2a>
   32ea8:	8b 55 0c             	mov    0xc(%ebp),%edx
   32eab:	8d 42 01             	lea    0x1(%edx),%eax
   32eae:	89 45 0c             	mov    %eax,0xc(%ebp)
   32eb1:	8b 45 08             	mov    0x8(%ebp),%eax
   32eb4:	8d 48 01             	lea    0x1(%eax),%ecx
   32eb7:	89 4d 08             	mov    %ecx,0x8(%ebp)
   32eba:	0f b6 12             	movzbl (%edx),%edx
   32ebd:	88 10                	mov    %dl,(%eax)
   32ebf:	83 6d 10 01          	subl   $0x1,0x10(%ebp)
   32ec3:	83 7d 10 00          	cmpl   $0x0,0x10(%ebp)
   32ec7:	75 df                	jne    32ea8 <memcpy+0xf>
   32ec9:	90                   	nop
   32eca:	5d                   	pop    %ebp
   32ecb:	c3                   	ret    

00032ecc <memset>:
   32ecc:	55                   	push   %ebp
   32ecd:	89 e5                	mov    %esp,%ebp
   32ecf:	83 ec 14             	sub    $0x14,%esp
   32ed2:	e8 74 03 00 00       	call   3324b <__x86.get_pc_thunk.ax>
   32ed7:	05 7d 0d 00 00       	add    $0xd7d,%eax
   32edc:	8b 45 0c             	mov    0xc(%ebp),%eax
   32edf:	88 45 ec             	mov    %al,-0x14(%ebp)
   32ee2:	8b 45 08             	mov    0x8(%ebp),%eax
   32ee5:	89 45 fc             	mov    %eax,-0x4(%ebp)
   32ee8:	eb 13                	jmp    32efd <memset+0x31>
   32eea:	8b 45 fc             	mov    -0x4(%ebp),%eax
   32eed:	8d 50 01             	lea    0x1(%eax),%edx
   32ef0:	89 55 fc             	mov    %edx,-0x4(%ebp)
   32ef3:	0f b6 55 ec          	movzbl -0x14(%ebp),%edx
   32ef7:	88 10                	mov    %dl,(%eax)
   32ef9:	83 6d 10 01          	subl   $0x1,0x10(%ebp)
   32efd:	83 7d 10 00          	cmpl   $0x0,0x10(%ebp)
   32f01:	75 e7                	jne    32eea <memset+0x1e>
   32f03:	90                   	nop
   32f04:	c9                   	leave  
   32f05:	c3                   	ret    

00032f06 <bzero>:
   32f06:	55                   	push   %ebp
   32f07:	89 e5                	mov    %esp,%ebp
   32f09:	e8 3d 03 00 00       	call   3324b <__x86.get_pc_thunk.ax>
   32f0e:	05 46 0d 00 00       	add    $0xd46,%eax
   32f13:	ff 75 0c             	pushl  0xc(%ebp)
   32f16:	6a 00                	push   $0x0
   32f18:	ff 75 08             	pushl  0x8(%ebp)
   32f1b:	e8 ac ff ff ff       	call   32ecc <memset>
   32f20:	83 c4 0c             	add    $0xc,%esp
   32f23:	90                   	nop
   32f24:	c9                   	leave  
   32f25:	c3                   	ret    

00032f26 <strcmp>:
   32f26:	55                   	push   %ebp
   32f27:	89 e5                	mov    %esp,%ebp
   32f29:	e8 1d 03 00 00       	call   3324b <__x86.get_pc_thunk.ax>
   32f2e:	05 26 0d 00 00       	add    $0xd26,%eax
   32f33:	90                   	nop
   32f34:	8b 45 08             	mov    0x8(%ebp),%eax
   32f37:	0f b6 00             	movzbl (%eax),%eax
   32f3a:	84 c0                	test   %al,%al
   32f3c:	74 26                	je     32f64 <strcmp+0x3e>
   32f3e:	8b 45 0c             	mov    0xc(%ebp),%eax
   32f41:	0f b6 00             	movzbl (%eax),%eax
   32f44:	84 c0                	test   %al,%al
   32f46:	74 1c                	je     32f64 <strcmp+0x3e>
   32f48:	8b 45 08             	mov    0x8(%ebp),%eax
   32f4b:	8d 50 01             	lea    0x1(%eax),%edx
   32f4e:	89 55 08             	mov    %edx,0x8(%ebp)
   32f51:	0f b6 08             	movzbl (%eax),%ecx
   32f54:	8b 45 0c             	mov    0xc(%ebp),%eax
   32f57:	8d 50 01             	lea    0x1(%eax),%edx
   32f5a:	89 55 0c             	mov    %edx,0xc(%ebp)
   32f5d:	0f b6 00             	movzbl (%eax),%eax
   32f60:	38 c1                	cmp    %al,%cl
   32f62:	74 d0                	je     32f34 <strcmp+0xe>
   32f64:	8b 45 08             	mov    0x8(%ebp),%eax
   32f67:	0f b6 00             	movzbl (%eax),%eax
   32f6a:	84 c0                	test   %al,%al
   32f6c:	75 11                	jne    32f7f <strcmp+0x59>
   32f6e:	8b 45 0c             	mov    0xc(%ebp),%eax
   32f71:	0f b6 00             	movzbl (%eax),%eax
   32f74:	84 c0                	test   %al,%al
   32f76:	75 07                	jne    32f7f <strcmp+0x59>
   32f78:	b8 01 00 00 00       	mov    $0x1,%eax
   32f7d:	eb 16                	jmp    32f95 <strcmp+0x6f>
   32f7f:	8b 45 08             	mov    0x8(%ebp),%eax
   32f82:	0f b6 00             	movzbl (%eax),%eax
   32f85:	84 c0                	test   %al,%al
   32f87:	75 07                	jne    32f90 <strcmp+0x6a>
   32f89:	b8 00 00 00 00       	mov    $0x0,%eax
   32f8e:	eb 05                	jmp    32f95 <strcmp+0x6f>
   32f90:	b8 01 00 00 00       	mov    $0x1,%eax
   32f95:	5d                   	pop    %ebp
   32f96:	c3                   	ret    

00032f97 <strcpy>:
   32f97:	55                   	push   %ebp
   32f98:	89 e5                	mov    %esp,%ebp
   32f9a:	83 ec 10             	sub    $0x10,%esp
   32f9d:	e8 a9 02 00 00       	call   3324b <__x86.get_pc_thunk.ax>
   32fa2:	05 b2 0c 00 00       	add    $0xcb2,%eax
   32fa7:	8b 45 08             	mov    0x8(%ebp),%eax
   32faa:	89 45 fc             	mov    %eax,-0x4(%ebp)
   32fad:	eb 17                	jmp    32fc6 <strcpy+0x2f>
   32faf:	8b 55 0c             	mov    0xc(%ebp),%edx
   32fb2:	8d 42 01             	lea    0x1(%edx),%eax
   32fb5:	89 45 0c             	mov    %eax,0xc(%ebp)
   32fb8:	8b 45 08             	mov    0x8(%ebp),%eax
   32fbb:	8d 48 01             	lea    0x1(%eax),%ecx
   32fbe:	89 4d 08             	mov    %ecx,0x8(%ebp)
   32fc1:	0f b6 12             	movzbl (%edx),%edx
   32fc4:	88 10                	mov    %dl,(%eax)
   32fc6:	8b 45 0c             	mov    0xc(%ebp),%eax
   32fc9:	0f b6 00             	movzbl (%eax),%eax
   32fcc:	84 c0                	test   %al,%al
   32fce:	75 df                	jne    32faf <strcpy+0x18>
   32fd0:	8b 45 08             	mov    0x8(%ebp),%eax
   32fd3:	c6 00 00             	movb   $0x0,(%eax)
   32fd6:	8b 45 fc             	mov    -0x4(%ebp),%eax
   32fd9:	c9                   	leave  
   32fda:	c3                   	ret    

00032fdb <strcat>:
   32fdb:	55                   	push   %ebp
   32fdc:	89 e5                	mov    %esp,%ebp
   32fde:	83 ec 10             	sub    $0x10,%esp
   32fe1:	e8 65 02 00 00       	call   3324b <__x86.get_pc_thunk.ax>
   32fe6:	05 6e 0c 00 00       	add    $0xc6e,%eax
   32feb:	8b 45 08             	mov    0x8(%ebp),%eax
   32fee:	89 45 fc             	mov    %eax,-0x4(%ebp)
   32ff1:	eb 04                	jmp    32ff7 <strcat+0x1c>
   32ff3:	83 45 fc 01          	addl   $0x1,-0x4(%ebp)
   32ff7:	8b 45 fc             	mov    -0x4(%ebp),%eax
   32ffa:	0f b6 00             	movzbl (%eax),%eax
   32ffd:	84 c0                	test   %al,%al
   32fff:	75 f2                	jne    32ff3 <strcat+0x18>
   33001:	90                   	nop
   33002:	8b 55 0c             	mov    0xc(%ebp),%edx
   33005:	8d 42 01             	lea    0x1(%edx),%eax
   33008:	89 45 0c             	mov    %eax,0xc(%ebp)
   3300b:	8b 45 fc             	mov    -0x4(%ebp),%eax
   3300e:	8d 48 01             	lea    0x1(%eax),%ecx
   33011:	89 4d fc             	mov    %ecx,-0x4(%ebp)
   33014:	0f b6 12             	movzbl (%edx),%edx
   33017:	88 10                	mov    %dl,(%eax)
   33019:	0f b6 00             	movzbl (%eax),%eax
   3301c:	84 c0                	test   %al,%al
   3301e:	75 e2                	jne    33002 <strcat+0x27>
   33020:	8b 45 08             	mov    0x8(%ebp),%eax
   33023:	c9                   	leave  
   33024:	c3                   	ret    

00033025 <strlen>:
   33025:	55                   	push   %ebp
   33026:	89 e5                	mov    %esp,%ebp
   33028:	83 ec 10             	sub    $0x10,%esp
   3302b:	e8 1b 02 00 00       	call   3324b <__x86.get_pc_thunk.ax>
   33030:	05 24 0c 00 00       	add    $0xc24,%eax
   33035:	8b 45 08             	mov    0x8(%ebp),%eax
   33038:	89 45 fc             	mov    %eax,-0x4(%ebp)
   3303b:	90                   	nop
   3303c:	8b 45 fc             	mov    -0x4(%ebp),%eax
   3303f:	8d 50 01             	lea    0x1(%eax),%edx
   33042:	89 55 fc             	mov    %edx,-0x4(%ebp)
   33045:	0f b6 00             	movzbl (%eax),%eax
   33048:	84 c0                	test   %al,%al
   3304a:	75 f0                	jne    3303c <strlen+0x17>
   3304c:	8b 55 fc             	mov    -0x4(%ebp),%edx
   3304f:	8b 45 08             	mov    0x8(%ebp),%eax
   33052:	29 c2                	sub    %eax,%edx
   33054:	89 d0                	mov    %edx,%eax
   33056:	83 e8 01             	sub    $0x1,%eax
   33059:	c9                   	leave  
   3305a:	c3                   	ret    

0003305b <isr_ctx_save>:
   3305b:	60                   	pusha  
   3305c:	66 8c d8             	mov    %ds,%ax
   3305f:	50                   	push   %eax
   33060:	66 b8 10 00          	mov    $0x10,%ax
   33064:	8e d8                	mov    %eax,%ds
   33066:	8e c0                	mov    %eax,%es
   33068:	8e e0                	mov    %eax,%fs
   3306a:	8e e8                	mov    %eax,%gs
   3306c:	8e d0                	mov    %eax,%ss
   3306e:	54                   	push   %esp
   3306f:	e8 70 d8 ff ff       	call   308e4 <isr_handler_dispatcher>
   33074:	83 c4 04             	add    $0x4,%esp
   33077:	5b                   	pop    %ebx
   33078:	8e db                	mov    %ebx,%ds
   3307a:	8e c3                	mov    %ebx,%es
   3307c:	8e e3                	mov    %ebx,%fs
   3307e:	8e eb                	mov    %ebx,%gs
   33080:	8e d3                	mov    %ebx,%ss
   33082:	61                   	popa   
   33083:	83 c4 08             	add    $0x8,%esp
   33086:	cf                   	iret   

00033087 <isr0>:
   33087:	fa                   	cli    
   33088:	6a 00                	push   $0x0
   3308a:	6a 00                	push   $0x0
   3308c:	eb cd                	jmp    3305b <isr_ctx_save>

0003308e <isr1>:
   3308e:	fa                   	cli    
   3308f:	6a 00                	push   $0x0
   33091:	6a 01                	push   $0x1
   33093:	eb c6                	jmp    3305b <isr_ctx_save>

00033095 <isr2>:
   33095:	fa                   	cli    
   33096:	6a 00                	push   $0x0
   33098:	6a 02                	push   $0x2
   3309a:	eb bf                	jmp    3305b <isr_ctx_save>

0003309c <isr3>:
   3309c:	fa                   	cli    
   3309d:	6a 00                	push   $0x0
   3309f:	6a 03                	push   $0x3
   330a1:	eb b8                	jmp    3305b <isr_ctx_save>

000330a3 <isr4>:
   330a3:	fa                   	cli    
   330a4:	6a 00                	push   $0x0
   330a6:	6a 04                	push   $0x4
   330a8:	eb b1                	jmp    3305b <isr_ctx_save>

000330aa <isr5>:
   330aa:	fa                   	cli    
   330ab:	6a 00                	push   $0x0
   330ad:	6a 05                	push   $0x5
   330af:	eb aa                	jmp    3305b <isr_ctx_save>

000330b1 <isr6>:
   330b1:	fa                   	cli    
   330b2:	6a 00                	push   $0x0
   330b4:	6a 06                	push   $0x6
   330b6:	eb a3                	jmp    3305b <isr_ctx_save>

000330b8 <isr7>:
   330b8:	fa                   	cli    
   330b9:	6a 00                	push   $0x0
   330bb:	6a 07                	push   $0x7
   330bd:	eb 9c                	jmp    3305b <isr_ctx_save>

000330bf <isr8>:
   330bf:	fa                   	cli    
   330c0:	6a 08                	push   $0x8
   330c2:	eb 97                	jmp    3305b <isr_ctx_save>

000330c4 <isr9>:
   330c4:	fa                   	cli    
   330c5:	6a 00                	push   $0x0
   330c7:	6a 09                	push   $0x9
   330c9:	eb 90                	jmp    3305b <isr_ctx_save>

000330cb <isr10>:
   330cb:	fa                   	cli    
   330cc:	6a 0a                	push   $0xa
   330ce:	eb 8b                	jmp    3305b <isr_ctx_save>

000330d0 <isr11>:
   330d0:	fa                   	cli    
   330d1:	6a 0b                	push   $0xb
   330d3:	eb 86                	jmp    3305b <isr_ctx_save>

000330d5 <isr12>:
   330d5:	fa                   	cli    
   330d6:	6a 0c                	push   $0xc
   330d8:	eb 81                	jmp    3305b <isr_ctx_save>

000330da <isr13>:
   330da:	fa                   	cli    
   330db:	6a 0d                	push   $0xd
   330dd:	e9 79 ff ff ff       	jmp    3305b <isr_ctx_save>

000330e2 <isr14>:
   330e2:	fa                   	cli    
   330e3:	6a 0e                	push   $0xe
   330e5:	e9 71 ff ff ff       	jmp    3305b <isr_ctx_save>

000330ea <isr15>:
   330ea:	fa                   	cli    
   330eb:	6a 00                	push   $0x0
   330ed:	6a 0f                	push   $0xf
   330ef:	e9 67 ff ff ff       	jmp    3305b <isr_ctx_save>

000330f4 <isr16>:
   330f4:	fa                   	cli    
   330f5:	6a 00                	push   $0x0
   330f7:	6a 10                	push   $0x10
   330f9:	e9 5d ff ff ff       	jmp    3305b <isr_ctx_save>

000330fe <isr17>:
   330fe:	fa                   	cli    
   330ff:	6a 11                	push   $0x11
   33101:	e9 55 ff ff ff       	jmp    3305b <isr_ctx_save>

00033106 <isr18>:
   33106:	fa                   	cli    
   33107:	6a 00                	push   $0x0
   33109:	6a 12                	push   $0x12
   3310b:	e9 4b ff ff ff       	jmp    3305b <isr_ctx_save>

00033110 <isr19>:
   33110:	fa                   	cli    
   33111:	6a 00                	push   $0x0
   33113:	6a 13                	push   $0x13
   33115:	e9 41 ff ff ff       	jmp    3305b <isr_ctx_save>

0003311a <isr20>:
   3311a:	fa                   	cli    
   3311b:	6a 00                	push   $0x0
   3311d:	6a 14                	push   $0x14
   3311f:	e9 37 ff ff ff       	jmp    3305b <isr_ctx_save>

00033124 <isr21>:
   33124:	fa                   	cli    
   33125:	6a 00                	push   $0x0
   33127:	6a 15                	push   $0x15
   33129:	e9 2d ff ff ff       	jmp    3305b <isr_ctx_save>

0003312e <isr22>:
   3312e:	fa                   	cli    
   3312f:	6a 00                	push   $0x0
   33131:	6a 16                	push   $0x16
   33133:	e9 23 ff ff ff       	jmp    3305b <isr_ctx_save>

00033138 <isr23>:
   33138:	fa                   	cli    
   33139:	6a 00                	push   $0x0
   3313b:	6a 17                	push   $0x17
   3313d:	e9 19 ff ff ff       	jmp    3305b <isr_ctx_save>

00033142 <isr24>:
   33142:	fa                   	cli    
   33143:	6a 00                	push   $0x0
   33145:	6a 18                	push   $0x18
   33147:	e9 0f ff ff ff       	jmp    3305b <isr_ctx_save>

0003314c <isr25>:
   3314c:	fa                   	cli    
   3314d:	6a 00                	push   $0x0
   3314f:	6a 19                	push   $0x19
   33151:	e9 05 ff ff ff       	jmp    3305b <isr_ctx_save>

00033156 <isr26>:
   33156:	fa                   	cli    
   33157:	6a 00                	push   $0x0
   33159:	6a 1a                	push   $0x1a
   3315b:	e9 fb fe ff ff       	jmp    3305b <isr_ctx_save>

00033160 <isr27>:
   33160:	fa                   	cli    
   33161:	6a 00                	push   $0x0
   33163:	6a 1b                	push   $0x1b
   33165:	e9 f1 fe ff ff       	jmp    3305b <isr_ctx_save>

0003316a <isr28>:
   3316a:	fa                   	cli    
   3316b:	6a 00                	push   $0x0
   3316d:	6a 1c                	push   $0x1c
   3316f:	e9 e7 fe ff ff       	jmp    3305b <isr_ctx_save>

00033174 <isr29>:
   33174:	fa                   	cli    
   33175:	6a 00                	push   $0x0
   33177:	6a 1d                	push   $0x1d
   33179:	e9 dd fe ff ff       	jmp    3305b <isr_ctx_save>

0003317e <isr30>:
   3317e:	fa                   	cli    
   3317f:	6a 00                	push   $0x0
   33181:	6a 1e                	push   $0x1e
   33183:	e9 d3 fe ff ff       	jmp    3305b <isr_ctx_save>

00033188 <isr31>:
   33188:	fa                   	cli    
   33189:	6a 00                	push   $0x0
   3318b:	6a 1f                	push   $0x1f
   3318d:	e9 c9 fe ff ff       	jmp    3305b <isr_ctx_save>

00033192 <isr255>:
   33192:	fa                   	cli    
   33193:	6a 00                	push   $0x0
   33195:	68 ff 00 00 00       	push   $0xff
   3319a:	e9 bc fe ff ff       	jmp    3305b <isr_ctx_save>

0003319f <irq_ctx_save>:
   3319f:	60                   	pusha  
   331a0:	66 8c d8             	mov    %ds,%ax
   331a3:	50                   	push   %eax
   331a4:	66 b8 10 00          	mov    $0x10,%ax
   331a8:	8e d8                	mov    %eax,%ds
   331aa:	8e c0                	mov    %eax,%es
   331ac:	8e e0                	mov    %eax,%fs
   331ae:	8e e8                	mov    %eax,%gs
   331b0:	8e d0                	mov    %eax,%ss
   331b2:	54                   	push   %esp
   331b3:	e8 bd d7 ff ff       	call   30975 <irq_handler_dispathcer>
   331b8:	83 c4 04             	add    $0x4,%esp
   331bb:	5b                   	pop    %ebx
   331bc:	8e db                	mov    %ebx,%ds
   331be:	8e c3                	mov    %ebx,%es
   331c0:	8e e3                	mov    %ebx,%fs
   331c2:	8e eb                	mov    %ebx,%gs
   331c4:	8e d3                	mov    %ebx,%ss
   331c6:	61                   	popa   
   331c7:	83 c4 08             	add    $0x8,%esp
   331ca:	cf                   	iret   

000331cb <irq0>:
   331cb:	fa                   	cli    
   331cc:	6a 00                	push   $0x0
   331ce:	6a 20                	push   $0x20
   331d0:	eb cd                	jmp    3319f <irq_ctx_save>

000331d2 <irq1>:
   331d2:	fa                   	cli    
   331d3:	6a 00                	push   $0x0
   331d5:	6a 21                	push   $0x21
   331d7:	eb c6                	jmp    3319f <irq_ctx_save>

000331d9 <irq2>:
   331d9:	fa                   	cli    
   331da:	6a 00                	push   $0x0
   331dc:	6a 22                	push   $0x22
   331de:	eb bf                	jmp    3319f <irq_ctx_save>

000331e0 <irq3>:
   331e0:	fa                   	cli    
   331e1:	6a 00                	push   $0x0
   331e3:	6a 23                	push   $0x23
   331e5:	eb b8                	jmp    3319f <irq_ctx_save>

000331e7 <irq4>:
   331e7:	fa                   	cli    
   331e8:	6a 00                	push   $0x0
   331ea:	6a 24                	push   $0x24
   331ec:	eb b1                	jmp    3319f <irq_ctx_save>

000331ee <irq5>:
   331ee:	fa                   	cli    
   331ef:	6a 00                	push   $0x0
   331f1:	6a 25                	push   $0x25
   331f3:	eb aa                	jmp    3319f <irq_ctx_save>

000331f5 <irq6>:
   331f5:	fa                   	cli    
   331f6:	6a 00                	push   $0x0
   331f8:	6a 26                	push   $0x26
   331fa:	eb a3                	jmp    3319f <irq_ctx_save>

000331fc <irq7>:
   331fc:	fa                   	cli    
   331fd:	6a 00                	push   $0x0
   331ff:	6a 27                	push   $0x27
   33201:	eb 9c                	jmp    3319f <irq_ctx_save>

00033203 <irq8>:
   33203:	fa                   	cli    
   33204:	6a 00                	push   $0x0
   33206:	6a 28                	push   $0x28
   33208:	eb 95                	jmp    3319f <irq_ctx_save>

0003320a <irq9>:
   3320a:	fa                   	cli    
   3320b:	6a 00                	push   $0x0
   3320d:	6a 29                	push   $0x29
   3320f:	eb 8e                	jmp    3319f <irq_ctx_save>

00033211 <irq10>:
   33211:	fa                   	cli    
   33212:	6a 00                	push   $0x0
   33214:	6a 2a                	push   $0x2a
   33216:	eb 87                	jmp    3319f <irq_ctx_save>

00033218 <irq11>:
   33218:	fa                   	cli    
   33219:	6a 00                	push   $0x0
   3321b:	6a 2b                	push   $0x2b
   3321d:	eb 80                	jmp    3319f <irq_ctx_save>

0003321f <irq12>:
   3321f:	fa                   	cli    
   33220:	6a 00                	push   $0x0
   33222:	6a 2c                	push   $0x2c
   33224:	e9 76 ff ff ff       	jmp    3319f <irq_ctx_save>

00033229 <irq13>:
   33229:	fa                   	cli    
   3322a:	6a 00                	push   $0x0
   3322c:	6a 2d                	push   $0x2d
   3322e:	e9 6c ff ff ff       	jmp    3319f <irq_ctx_save>

00033233 <irq14>:
   33233:	fa                   	cli    
   33234:	6a 00                	push   $0x0
   33236:	6a 2e                	push   $0x2e
   33238:	e9 62 ff ff ff       	jmp    3319f <irq_ctx_save>

0003323d <irq15>:
   3323d:	fa                   	cli    
   3323e:	6a 00                	push   $0x0
   33240:	6a 2f                	push   $0x2f
   33242:	e9 58 ff ff ff       	jmp    3319f <irq_ctx_save>

Disassembly of section .text.__x86.get_pc_thunk.bx:

00033247 <__x86.get_pc_thunk.bx>:
   33247:	8b 1c 24             	mov    (%esp),%ebx
   3324a:	c3                   	ret    

Disassembly of section .text.__x86.get_pc_thunk.ax:

0003324b <__x86.get_pc_thunk.ax>:
   3324b:	8b 04 24             	mov    (%esp),%eax
   3324e:	c3                   	ret    
